
LED-I2C-Master C++.elf:     file format elf32-avr

Sections:
Idx Name          Size      VMA       LMA       File off  Algn
  0 .text         00000fd4  00000000  00000000  00000094  2**1
                  CONTENTS, ALLOC, LOAD, READONLY, CODE
  1 .data         0000000c  00800060  00000fd4  00001068  2**0
                  CONTENTS, ALLOC, LOAD, DATA
  2 .bss          00000016  0080006c  0080006c  00001074  2**0
                  ALLOC
  3 .comment      00000030  00000000  00000000  00001074  2**0
                  CONTENTS, READONLY
  4 .note.gnu.avr.deviceinfo 0000003c  00000000  00000000  000010a4  2**2
                  CONTENTS, READONLY
  5 .debug_aranges 00000140  00000000  00000000  000010e0  2**0
                  CONTENTS, READONLY, DEBUGGING
  6 .debug_info   00002a8c  00000000  00000000  00001220  2**0
                  CONTENTS, READONLY, DEBUGGING
  7 .debug_abbrev 0000091e  00000000  00000000  00003cac  2**0
                  CONTENTS, READONLY, DEBUGGING
  8 .debug_line   00000fa8  00000000  00000000  000045ca  2**0
                  CONTENTS, READONLY, DEBUGGING
  9 .debug_frame  000004f0  00000000  00000000  00005574  2**2
                  CONTENTS, READONLY, DEBUGGING
 10 .debug_str    00000cfb  00000000  00000000  00005a64  2**0
                  CONTENTS, READONLY, DEBUGGING
 11 .debug_loc    00002828  00000000  00000000  0000675f  2**0
                  CONTENTS, READONLY, DEBUGGING
 12 .debug_ranges 00000190  00000000  00000000  00008f87  2**0
                  CONTENTS, READONLY, DEBUGGING

Disassembly of section .text:

00000000 <__vectors>:
   0:	0c 94 2b 00 	jmp	0x56	; 0x56 <__ctors_end>
   4:	0c 94 53 00 	jmp	0xa6	; 0xa6 <__bad_interrupt>
   8:	0c 94 53 00 	jmp	0xa6	; 0xa6 <__bad_interrupt>
   c:	0c 94 53 00 	jmp	0xa6	; 0xa6 <__bad_interrupt>
  10:	0c 94 53 00 	jmp	0xa6	; 0xa6 <__bad_interrupt>
  14:	0c 94 53 00 	jmp	0xa6	; 0xa6 <__bad_interrupt>
  18:	0c 94 53 00 	jmp	0xa6	; 0xa6 <__bad_interrupt>
  1c:	0c 94 53 00 	jmp	0xa6	; 0xa6 <__bad_interrupt>
  20:	0c 94 53 00 	jmp	0xa6	; 0xa6 <__bad_interrupt>
  24:	0c 94 53 00 	jmp	0xa6	; 0xa6 <__bad_interrupt>
  28:	0c 94 53 00 	jmp	0xa6	; 0xa6 <__bad_interrupt>
  2c:	0c 94 53 00 	jmp	0xa6	; 0xa6 <__bad_interrupt>
  30:	0c 94 53 00 	jmp	0xa6	; 0xa6 <__bad_interrupt>
  34:	0c 94 53 00 	jmp	0xa6	; 0xa6 <__bad_interrupt>
  38:	0c 94 53 00 	jmp	0xa6	; 0xa6 <__bad_interrupt>
  3c:	0c 94 53 00 	jmp	0xa6	; 0xa6 <__bad_interrupt>
  40:	0c 94 53 00 	jmp	0xa6	; 0xa6 <__bad_interrupt>
  44:	0c 94 53 00 	jmp	0xa6	; 0xa6 <__bad_interrupt>
  48:	0c 94 53 00 	jmp	0xa6	; 0xa6 <__bad_interrupt>
  4c:	0c 94 53 00 	jmp	0xa6	; 0xa6 <__bad_interrupt>
  50:	0c 94 53 00 	jmp	0xa6	; 0xa6 <__bad_interrupt>

00000054 <__ctors_start>:
  54:	26 07       	cpc	r18, r22

00000056 <__ctors_end>:
  56:	11 24       	eor	r1, r1
  58:	1f be       	out	0x3f, r1	; 63
  5a:	cf e5       	ldi	r28, 0x5F	; 95
  5c:	d8 e0       	ldi	r29, 0x08	; 8
  5e:	de bf       	out	0x3e, r29	; 62
  60:	cd bf       	out	0x3d, r28	; 61

00000062 <__do_copy_data>:
  62:	10 e0       	ldi	r17, 0x00	; 0
  64:	a0 e6       	ldi	r26, 0x60	; 96
  66:	b0 e0       	ldi	r27, 0x00	; 0
  68:	e4 ed       	ldi	r30, 0xD4	; 212
  6a:	ff e0       	ldi	r31, 0x0F	; 15
  6c:	02 c0       	rjmp	.+4      	; 0x72 <__do_copy_data+0x10>
  6e:	05 90       	lpm	r0, Z+
  70:	0d 92       	st	X+, r0
  72:	ac 36       	cpi	r26, 0x6C	; 108
  74:	b1 07       	cpc	r27, r17
  76:	d9 f7       	brne	.-10     	; 0x6e <__do_copy_data+0xc>

00000078 <__do_clear_bss>:
  78:	20 e0       	ldi	r18, 0x00	; 0
  7a:	ac e6       	ldi	r26, 0x6C	; 108
  7c:	b0 e0       	ldi	r27, 0x00	; 0
  7e:	01 c0       	rjmp	.+2      	; 0x82 <.do_clear_bss_start>

00000080 <.do_clear_bss_loop>:
  80:	1d 92       	st	X+, r1

00000082 <.do_clear_bss_start>:
  82:	a2 38       	cpi	r26, 0x82	; 130
  84:	b2 07       	cpc	r27, r18
  86:	e1 f7       	brne	.-8      	; 0x80 <.do_clear_bss_loop>

00000088 <__do_global_ctors>:
  88:	10 e0       	ldi	r17, 0x00	; 0
  8a:	cb e2       	ldi	r28, 0x2B	; 43
  8c:	d0 e0       	ldi	r29, 0x00	; 0
  8e:	04 c0       	rjmp	.+8      	; 0x98 <__do_global_ctors+0x10>
  90:	21 97       	sbiw	r28, 0x01	; 1
  92:	fe 01       	movw	r30, r28
  94:	0e 94 e2 07 	call	0xfc4	; 0xfc4 <__tablejump2__>
  98:	ca 32       	cpi	r28, 0x2A	; 42
  9a:	d1 07       	cpc	r29, r17
  9c:	c9 f7       	brne	.-14     	; 0x90 <__do_global_ctors+0x8>
  9e:	0e 94 cc 06 	call	0xd98	; 0xd98 <main>
  a2:	0c 94 e8 07 	jmp	0xfd0	; 0xfd0 <_exit>

000000a6 <__bad_interrupt>:
  a6:	0c 94 00 00 	jmp	0	; 0x0 <__vectors>

000000aa <_Z9i2c_starth>:
			SendChar(ch);
		}
	}

	va_end(argp);
}
  aa:	16 be       	out	0x36, r1	; 54
  ac:	94 ea       	ldi	r25, 0xA4	; 164
  ae:	96 bf       	out	0x36, r25	; 54
  b0:	06 b6       	in	r0, 0x36	; 54
  b2:	07 fe       	sbrs	r0, 7
  b4:	fd cf       	rjmp	.-6      	; 0xb0 <_Z9i2c_starth+0x6>
  b6:	91 b1       	in	r25, 0x01	; 1
  b8:	98 7f       	andi	r25, 0xF8	; 248
  ba:	98 30       	cpi	r25, 0x08	; 8
  bc:	79 f4       	brne	.+30     	; 0xdc <_Z9i2c_starth+0x32>
  be:	83 b9       	out	0x03, r24	; 3
  c0:	84 e8       	ldi	r24, 0x84	; 132
  c2:	86 bf       	out	0x36, r24	; 54
  c4:	06 b6       	in	r0, 0x36	; 54
  c6:	07 fe       	sbrs	r0, 7
  c8:	fd cf       	rjmp	.-6      	; 0xc4 <_Z9i2c_starth+0x1a>
  ca:	91 b1       	in	r25, 0x01	; 1
  cc:	98 7f       	andi	r25, 0xF8	; 248
  ce:	98 31       	cpi	r25, 0x18	; 24
  d0:	39 f0       	breq	.+14     	; 0xe0 <_Z9i2c_starth+0x36>
  d2:	81 e0       	ldi	r24, 0x01	; 1
  d4:	90 34       	cpi	r25, 0x40	; 64
  d6:	29 f4       	brne	.+10     	; 0xe2 <_Z9i2c_starth+0x38>
  d8:	80 e0       	ldi	r24, 0x00	; 0
  da:	08 95       	ret
  dc:	81 e0       	ldi	r24, 0x01	; 1
  de:	08 95       	ret
  e0:	80 e0       	ldi	r24, 0x00	; 0
  e2:	08 95       	ret

000000e4 <_Z9i2c_writeh>:
  e4:	83 b9       	out	0x03, r24	; 3
  e6:	84 e8       	ldi	r24, 0x84	; 132
  e8:	86 bf       	out	0x36, r24	; 54
  ea:	06 b6       	in	r0, 0x36	; 54
  ec:	07 fe       	sbrs	r0, 7
  ee:	fd cf       	rjmp	.-6      	; 0xea <_Z9i2c_writeh+0x6>
  f0:	91 b1       	in	r25, 0x01	; 1
  f2:	98 7f       	andi	r25, 0xF8	; 248
  f4:	81 e0       	ldi	r24, 0x01	; 1
  f6:	98 32       	cpi	r25, 0x28	; 40
  f8:	09 f4       	brne	.+2      	; 0xfc <_Z9i2c_writeh+0x18>
  fa:	80 e0       	ldi	r24, 0x00	; 0
  fc:	08 95       	ret

000000fe <_ZN13Character_LCDC1Ev>:
  fe:	fc 01       	movw	r30, r24
 100:	9b e1       	ldi	r25, 0x1B	; 27
 102:	90 83       	st	Z, r25
 104:	8a e1       	ldi	r24, 0x1A	; 26
 106:	81 83       	std	Z+1, r24	; 0x01
 108:	12 82       	std	Z+2, r1	; 0x02
 10a:	93 83       	std	Z+3, r25	; 0x03
 10c:	84 83       	std	Z+4, r24	; 0x04
 10e:	21 e0       	ldi	r18, 0x01	; 1
 110:	25 83       	std	Z+5, r18	; 0x05
 112:	96 83       	std	Z+6, r25	; 0x06
 114:	87 83       	std	Z+7, r24	; 0x07
 116:	22 e0       	ldi	r18, 0x02	; 2
 118:	20 87       	std	Z+8, r18	; 0x08
 11a:	91 87       	std	Z+9, r25	; 0x09
 11c:	82 87       	std	Z+10, r24	; 0x0a
 11e:	23 e0       	ldi	r18, 0x03	; 3
 120:	23 87       	std	Z+11, r18	; 0x0b
 122:	94 87       	std	Z+12, r25	; 0x0c
 124:	85 87       	std	Z+13, r24	; 0x0d
 126:	24 e0       	ldi	r18, 0x04	; 4
 128:	26 87       	std	Z+14, r18	; 0x0e
 12a:	97 87       	std	Z+15, r25	; 0x0f
 12c:	80 8b       	std	Z+16, r24	; 0x10
 12e:	25 e0       	ldi	r18, 0x05	; 5
 130:	21 8b       	std	Z+17, r18	; 0x11
 132:	92 8b       	std	Z+18, r25	; 0x12
 134:	83 8b       	std	Z+19, r24	; 0x13
 136:	86 e0       	ldi	r24, 0x06	; 6
 138:	84 8b       	std	Z+20, r24	; 0x14
 13a:	08 95       	ret

0000013c <_ZN13Character_LCD8SendCharEh>:
 13c:	fc 01       	movw	r30, r24
 13e:	64 fd       	sbrc	r22, 4
 140:	12 c0       	rjmp	.+36     	; 0x166 <_ZN13Character_LCD8SendCharEh+0x2a>
 142:	a1 85       	ldd	r26, Z+9	; 0x09
 144:	b0 e0       	ldi	r27, 0x00	; 0
 146:	90 96       	adiw	r26, 0x20	; 32
 148:	2c 91       	ld	r18, X
 14a:	90 97       	sbiw	r26, 0x20	; 32
 14c:	81 e0       	ldi	r24, 0x01	; 1
 14e:	90 e0       	ldi	r25, 0x00	; 0
 150:	03 84       	ldd	r0, Z+11	; 0x0b
 152:	02 c0       	rjmp	.+4      	; 0x158 <_ZN13Character_LCD8SendCharEh+0x1c>
 154:	88 0f       	add	r24, r24
 156:	99 1f       	adc	r25, r25
 158:	0a 94       	dec	r0
 15a:	e2 f7       	brpl	.-8      	; 0x154 <_ZN13Character_LCD8SendCharEh+0x18>
 15c:	80 95       	com	r24
 15e:	82 23       	and	r24, r18
 160:	90 96       	adiw	r26, 0x20	; 32
 162:	8c 93       	st	X, r24
 164:	10 c0       	rjmp	.+32     	; 0x186 <_ZN13Character_LCD8SendCharEh+0x4a>
 166:	a1 85       	ldd	r26, Z+9	; 0x09
 168:	b0 e0       	ldi	r27, 0x00	; 0
 16a:	90 96       	adiw	r26, 0x20	; 32
 16c:	2c 91       	ld	r18, X
 16e:	90 97       	sbiw	r26, 0x20	; 32
 170:	81 e0       	ldi	r24, 0x01	; 1
 172:	90 e0       	ldi	r25, 0x00	; 0
 174:	03 84       	ldd	r0, Z+11	; 0x0b
 176:	02 c0       	rjmp	.+4      	; 0x17c <_ZN13Character_LCD8SendCharEh+0x40>
 178:	88 0f       	add	r24, r24
 17a:	99 1f       	adc	r25, r25
 17c:	0a 94       	dec	r0
 17e:	e2 f7       	brpl	.-8      	; 0x178 <_ZN13Character_LCD8SendCharEh+0x3c>
 180:	82 2b       	or	r24, r18
 182:	90 96       	adiw	r26, 0x20	; 32
 184:	8c 93       	st	X, r24
 186:	65 fd       	sbrc	r22, 5
 188:	12 c0       	rjmp	.+36     	; 0x1ae <_ZN13Character_LCD8SendCharEh+0x72>
 18a:	a4 85       	ldd	r26, Z+12	; 0x0c
 18c:	b0 e0       	ldi	r27, 0x00	; 0
 18e:	90 96       	adiw	r26, 0x20	; 32
 190:	2c 91       	ld	r18, X
 192:	90 97       	sbiw	r26, 0x20	; 32
 194:	81 e0       	ldi	r24, 0x01	; 1
 196:	90 e0       	ldi	r25, 0x00	; 0
 198:	06 84       	ldd	r0, Z+14	; 0x0e
 19a:	02 c0       	rjmp	.+4      	; 0x1a0 <_ZN13Character_LCD8SendCharEh+0x64>
 19c:	88 0f       	add	r24, r24
 19e:	99 1f       	adc	r25, r25
 1a0:	0a 94       	dec	r0
 1a2:	e2 f7       	brpl	.-8      	; 0x19c <_ZN13Character_LCD8SendCharEh+0x60>
 1a4:	80 95       	com	r24
 1a6:	82 23       	and	r24, r18
 1a8:	90 96       	adiw	r26, 0x20	; 32
 1aa:	8c 93       	st	X, r24
 1ac:	10 c0       	rjmp	.+32     	; 0x1ce <_ZN13Character_LCD8SendCharEh+0x92>
 1ae:	a4 85       	ldd	r26, Z+12	; 0x0c
 1b0:	b0 e0       	ldi	r27, 0x00	; 0
 1b2:	90 96       	adiw	r26, 0x20	; 32
 1b4:	2c 91       	ld	r18, X
 1b6:	90 97       	sbiw	r26, 0x20	; 32
 1b8:	81 e0       	ldi	r24, 0x01	; 1
 1ba:	90 e0       	ldi	r25, 0x00	; 0
 1bc:	06 84       	ldd	r0, Z+14	; 0x0e
 1be:	02 c0       	rjmp	.+4      	; 0x1c4 <_ZN13Character_LCD8SendCharEh+0x88>
 1c0:	88 0f       	add	r24, r24
 1c2:	99 1f       	adc	r25, r25
 1c4:	0a 94       	dec	r0
 1c6:	e2 f7       	brpl	.-8      	; 0x1c0 <_ZN13Character_LCD8SendCharEh+0x84>
 1c8:	82 2b       	or	r24, r18
 1ca:	90 96       	adiw	r26, 0x20	; 32
 1cc:	8c 93       	st	X, r24
 1ce:	66 fd       	sbrc	r22, 6
 1d0:	12 c0       	rjmp	.+36     	; 0x1f6 <_ZN13Character_LCD8SendCharEh+0xba>
 1d2:	a7 85       	ldd	r26, Z+15	; 0x0f
 1d4:	b0 e0       	ldi	r27, 0x00	; 0
 1d6:	90 96       	adiw	r26, 0x20	; 32
 1d8:	2c 91       	ld	r18, X
 1da:	90 97       	sbiw	r26, 0x20	; 32
 1dc:	81 e0       	ldi	r24, 0x01	; 1
 1de:	90 e0       	ldi	r25, 0x00	; 0
 1e0:	01 88       	ldd	r0, Z+17	; 0x11
 1e2:	02 c0       	rjmp	.+4      	; 0x1e8 <_ZN13Character_LCD8SendCharEh+0xac>
 1e4:	88 0f       	add	r24, r24
 1e6:	99 1f       	adc	r25, r25
 1e8:	0a 94       	dec	r0
 1ea:	e2 f7       	brpl	.-8      	; 0x1e4 <_ZN13Character_LCD8SendCharEh+0xa8>
 1ec:	80 95       	com	r24
 1ee:	82 23       	and	r24, r18
 1f0:	90 96       	adiw	r26, 0x20	; 32
 1f2:	8c 93       	st	X, r24
 1f4:	10 c0       	rjmp	.+32     	; 0x216 <_ZN13Character_LCD8SendCharEh+0xda>
 1f6:	a7 85       	ldd	r26, Z+15	; 0x0f
 1f8:	b0 e0       	ldi	r27, 0x00	; 0
 1fa:	90 96       	adiw	r26, 0x20	; 32
 1fc:	2c 91       	ld	r18, X
 1fe:	90 97       	sbiw	r26, 0x20	; 32
 200:	81 e0       	ldi	r24, 0x01	; 1
 202:	90 e0       	ldi	r25, 0x00	; 0
 204:	01 88       	ldd	r0, Z+17	; 0x11
 206:	02 c0       	rjmp	.+4      	; 0x20c <_ZN13Character_LCD8SendCharEh+0xd0>
 208:	88 0f       	add	r24, r24
 20a:	99 1f       	adc	r25, r25
 20c:	0a 94       	dec	r0
 20e:	e2 f7       	brpl	.-8      	; 0x208 <_ZN13Character_LCD8SendCharEh+0xcc>
 210:	82 2b       	or	r24, r18
 212:	90 96       	adiw	r26, 0x20	; 32
 214:	8c 93       	st	X, r24
 216:	66 23       	and	r22, r22
 218:	94 f0       	brlt	.+36     	; 0x23e <_ZN13Character_LCD8SendCharEh+0x102>
 21a:	a2 89       	ldd	r26, Z+18	; 0x12
 21c:	b0 e0       	ldi	r27, 0x00	; 0
 21e:	90 96       	adiw	r26, 0x20	; 32
 220:	2c 91       	ld	r18, X
 222:	90 97       	sbiw	r26, 0x20	; 32
 224:	81 e0       	ldi	r24, 0x01	; 1
 226:	90 e0       	ldi	r25, 0x00	; 0
 228:	04 88       	ldd	r0, Z+20	; 0x14
 22a:	02 c0       	rjmp	.+4      	; 0x230 <_ZN13Character_LCD8SendCharEh+0xf4>
 22c:	88 0f       	add	r24, r24
 22e:	99 1f       	adc	r25, r25
 230:	0a 94       	dec	r0
 232:	e2 f7       	brpl	.-8      	; 0x22c <_ZN13Character_LCD8SendCharEh+0xf0>
 234:	80 95       	com	r24
 236:	82 23       	and	r24, r18
 238:	90 96       	adiw	r26, 0x20	; 32
 23a:	8c 93       	st	X, r24
 23c:	10 c0       	rjmp	.+32     	; 0x25e <_ZN13Character_LCD8SendCharEh+0x122>
 23e:	a2 89       	ldd	r26, Z+18	; 0x12
 240:	b0 e0       	ldi	r27, 0x00	; 0
 242:	90 96       	adiw	r26, 0x20	; 32
 244:	2c 91       	ld	r18, X
 246:	90 97       	sbiw	r26, 0x20	; 32
 248:	81 e0       	ldi	r24, 0x01	; 1
 24a:	90 e0       	ldi	r25, 0x00	; 0
 24c:	04 88       	ldd	r0, Z+20	; 0x14
 24e:	02 c0       	rjmp	.+4      	; 0x254 <_ZN13Character_LCD8SendCharEh+0x118>
 250:	88 0f       	add	r24, r24
 252:	99 1f       	adc	r25, r25
 254:	0a 94       	dec	r0
 256:	e2 f7       	brpl	.-8      	; 0x250 <_ZN13Character_LCD8SendCharEh+0x114>
 258:	82 2b       	or	r24, r18
 25a:	90 96       	adiw	r26, 0x20	; 32
 25c:	8c 93       	st	X, r24
 25e:	a0 81       	ld	r26, Z
 260:	b0 e0       	ldi	r27, 0x00	; 0
 262:	90 96       	adiw	r26, 0x20	; 32
 264:	4c 91       	ld	r20, X
 266:	90 97       	sbiw	r26, 0x20	; 32
 268:	81 e0       	ldi	r24, 0x01	; 1
 26a:	90 e0       	ldi	r25, 0x00	; 0
 26c:	9c 01       	movw	r18, r24
 26e:	02 80       	ldd	r0, Z+2	; 0x02
 270:	02 c0       	rjmp	.+4      	; 0x276 <_ZN13Character_LCD8SendCharEh+0x13a>
 272:	22 0f       	add	r18, r18
 274:	33 1f       	adc	r19, r19
 276:	0a 94       	dec	r0
 278:	e2 f7       	brpl	.-8      	; 0x272 <_ZN13Character_LCD8SendCharEh+0x136>
 27a:	24 2b       	or	r18, r20
 27c:	90 96       	adiw	r26, 0x20	; 32
 27e:	2c 93       	st	X, r18
 280:	a6 81       	ldd	r26, Z+6	; 0x06
 282:	b0 e0       	ldi	r27, 0x00	; 0
 284:	90 96       	adiw	r26, 0x20	; 32
 286:	4c 91       	ld	r20, X
 288:	90 97       	sbiw	r26, 0x20	; 32
 28a:	9c 01       	movw	r18, r24
 28c:	00 84       	ldd	r0, Z+8	; 0x08
 28e:	02 c0       	rjmp	.+4      	; 0x294 <_ZN13Character_LCD8SendCharEh+0x158>
 290:	22 0f       	add	r18, r18
 292:	33 1f       	adc	r19, r19
 294:	0a 94       	dec	r0
 296:	e2 f7       	brpl	.-8      	; 0x290 <_ZN13Character_LCD8SendCharEh+0x154>
 298:	24 2b       	or	r18, r20
 29a:	90 96       	adiw	r26, 0x20	; 32
 29c:	2c 93       	st	X, r18
 29e:	af ec       	ldi	r26, 0xCF	; 207
 2a0:	b7 e0       	ldi	r27, 0x07	; 7
 2a2:	11 97       	sbiw	r26, 0x01	; 1
 2a4:	f1 f7       	brne	.-4      	; 0x2a2 <_ZN13Character_LCD8SendCharEh+0x166>
 2a6:	00 c0       	rjmp	.+0      	; 0x2a8 <_ZN13Character_LCD8SendCharEh+0x16c>
 2a8:	00 00       	nop
 2aa:	a6 81       	ldd	r26, Z+6	; 0x06
 2ac:	b0 e0       	ldi	r27, 0x00	; 0
 2ae:	90 96       	adiw	r26, 0x20	; 32
 2b0:	3c 91       	ld	r19, X
 2b2:	90 97       	sbiw	r26, 0x20	; 32
 2b4:	ac 01       	movw	r20, r24
 2b6:	00 84       	ldd	r0, Z+8	; 0x08
 2b8:	02 c0       	rjmp	.+4      	; 0x2be <_ZN13Character_LCD8SendCharEh+0x182>
 2ba:	44 0f       	add	r20, r20
 2bc:	55 1f       	adc	r21, r21
 2be:	0a 94       	dec	r0
 2c0:	e2 f7       	brpl	.-8      	; 0x2ba <_ZN13Character_LCD8SendCharEh+0x17e>
 2c2:	24 2f       	mov	r18, r20
 2c4:	20 95       	com	r18
 2c6:	23 23       	and	r18, r19
 2c8:	90 96       	adiw	r26, 0x20	; 32
 2ca:	2c 93       	st	X, r18
 2cc:	a0 81       	ld	r26, Z
 2ce:	b0 e0       	ldi	r27, 0x00	; 0
 2d0:	90 96       	adiw	r26, 0x20	; 32
 2d2:	2c 91       	ld	r18, X
 2d4:	90 97       	sbiw	r26, 0x20	; 32
 2d6:	02 80       	ldd	r0, Z+2	; 0x02
 2d8:	02 c0       	rjmp	.+4      	; 0x2de <_ZN13Character_LCD8SendCharEh+0x1a2>
 2da:	88 0f       	add	r24, r24
 2dc:	99 1f       	adc	r25, r25
 2de:	0a 94       	dec	r0
 2e0:	e2 f7       	brpl	.-8      	; 0x2da <_ZN13Character_LCD8SendCharEh+0x19e>
 2e2:	80 95       	com	r24
 2e4:	82 23       	and	r24, r18
 2e6:	90 96       	adiw	r26, 0x20	; 32
 2e8:	8c 93       	st	X, r24
 2ea:	8f ec       	ldi	r24, 0xCF	; 207
 2ec:	97 e0       	ldi	r25, 0x07	; 7
 2ee:	01 97       	sbiw	r24, 0x01	; 1
 2f0:	f1 f7       	brne	.-4      	; 0x2ee <_ZN13Character_LCD8SendCharEh+0x1b2>
 2f2:	00 c0       	rjmp	.+0      	; 0x2f4 <_ZN13Character_LCD8SendCharEh+0x1b8>
 2f4:	00 00       	nop
 2f6:	60 fd       	sbrc	r22, 0
 2f8:	12 c0       	rjmp	.+36     	; 0x31e <_ZN13Character_LCD8SendCharEh+0x1e2>
 2fa:	a1 85       	ldd	r26, Z+9	; 0x09
 2fc:	b0 e0       	ldi	r27, 0x00	; 0
 2fe:	90 96       	adiw	r26, 0x20	; 32
 300:	2c 91       	ld	r18, X
 302:	90 97       	sbiw	r26, 0x20	; 32
 304:	81 e0       	ldi	r24, 0x01	; 1
 306:	90 e0       	ldi	r25, 0x00	; 0
 308:	03 84       	ldd	r0, Z+11	; 0x0b
 30a:	02 c0       	rjmp	.+4      	; 0x310 <_ZN13Character_LCD8SendCharEh+0x1d4>
 30c:	88 0f       	add	r24, r24
 30e:	99 1f       	adc	r25, r25
 310:	0a 94       	dec	r0
 312:	e2 f7       	brpl	.-8      	; 0x30c <_ZN13Character_LCD8SendCharEh+0x1d0>
 314:	80 95       	com	r24
 316:	82 23       	and	r24, r18
 318:	90 96       	adiw	r26, 0x20	; 32
 31a:	8c 93       	st	X, r24
 31c:	10 c0       	rjmp	.+32     	; 0x33e <_ZN13Character_LCD8SendCharEh+0x202>
 31e:	a1 85       	ldd	r26, Z+9	; 0x09
 320:	b0 e0       	ldi	r27, 0x00	; 0
 322:	90 96       	adiw	r26, 0x20	; 32
 324:	2c 91       	ld	r18, X
 326:	90 97       	sbiw	r26, 0x20	; 32
 328:	81 e0       	ldi	r24, 0x01	; 1
 32a:	90 e0       	ldi	r25, 0x00	; 0
 32c:	03 84       	ldd	r0, Z+11	; 0x0b
 32e:	02 c0       	rjmp	.+4      	; 0x334 <_ZN13Character_LCD8SendCharEh+0x1f8>
 330:	88 0f       	add	r24, r24
 332:	99 1f       	adc	r25, r25
 334:	0a 94       	dec	r0
 336:	e2 f7       	brpl	.-8      	; 0x330 <_ZN13Character_LCD8SendCharEh+0x1f4>
 338:	82 2b       	or	r24, r18
 33a:	90 96       	adiw	r26, 0x20	; 32
 33c:	8c 93       	st	X, r24
 33e:	61 fd       	sbrc	r22, 1
 340:	12 c0       	rjmp	.+36     	; 0x366 <_ZN13Character_LCD8SendCharEh+0x22a>
 342:	a4 85       	ldd	r26, Z+12	; 0x0c
 344:	b0 e0       	ldi	r27, 0x00	; 0
 346:	90 96       	adiw	r26, 0x20	; 32
 348:	2c 91       	ld	r18, X
 34a:	90 97       	sbiw	r26, 0x20	; 32
 34c:	81 e0       	ldi	r24, 0x01	; 1
 34e:	90 e0       	ldi	r25, 0x00	; 0
 350:	06 84       	ldd	r0, Z+14	; 0x0e
 352:	02 c0       	rjmp	.+4      	; 0x358 <_ZN13Character_LCD8SendCharEh+0x21c>
 354:	88 0f       	add	r24, r24
 356:	99 1f       	adc	r25, r25
 358:	0a 94       	dec	r0
 35a:	e2 f7       	brpl	.-8      	; 0x354 <_ZN13Character_LCD8SendCharEh+0x218>
 35c:	80 95       	com	r24
 35e:	82 23       	and	r24, r18
 360:	90 96       	adiw	r26, 0x20	; 32
 362:	8c 93       	st	X, r24
 364:	10 c0       	rjmp	.+32     	; 0x386 <_ZN13Character_LCD8SendCharEh+0x24a>
 366:	a4 85       	ldd	r26, Z+12	; 0x0c
 368:	b0 e0       	ldi	r27, 0x00	; 0
 36a:	90 96       	adiw	r26, 0x20	; 32
 36c:	2c 91       	ld	r18, X
 36e:	90 97       	sbiw	r26, 0x20	; 32
 370:	81 e0       	ldi	r24, 0x01	; 1
 372:	90 e0       	ldi	r25, 0x00	; 0
 374:	06 84       	ldd	r0, Z+14	; 0x0e
 376:	02 c0       	rjmp	.+4      	; 0x37c <_ZN13Character_LCD8SendCharEh+0x240>
 378:	88 0f       	add	r24, r24
 37a:	99 1f       	adc	r25, r25
 37c:	0a 94       	dec	r0
 37e:	e2 f7       	brpl	.-8      	; 0x378 <_ZN13Character_LCD8SendCharEh+0x23c>
 380:	82 2b       	or	r24, r18
 382:	90 96       	adiw	r26, 0x20	; 32
 384:	8c 93       	st	X, r24
 386:	62 fd       	sbrc	r22, 2
 388:	12 c0       	rjmp	.+36     	; 0x3ae <_ZN13Character_LCD8SendCharEh+0x272>
 38a:	a7 85       	ldd	r26, Z+15	; 0x0f
 38c:	b0 e0       	ldi	r27, 0x00	; 0
 38e:	90 96       	adiw	r26, 0x20	; 32
 390:	2c 91       	ld	r18, X
 392:	90 97       	sbiw	r26, 0x20	; 32
 394:	81 e0       	ldi	r24, 0x01	; 1
 396:	90 e0       	ldi	r25, 0x00	; 0
 398:	01 88       	ldd	r0, Z+17	; 0x11
 39a:	02 c0       	rjmp	.+4      	; 0x3a0 <_ZN13Character_LCD8SendCharEh+0x264>
 39c:	88 0f       	add	r24, r24
 39e:	99 1f       	adc	r25, r25
 3a0:	0a 94       	dec	r0
 3a2:	e2 f7       	brpl	.-8      	; 0x39c <_ZN13Character_LCD8SendCharEh+0x260>
 3a4:	80 95       	com	r24
 3a6:	82 23       	and	r24, r18
 3a8:	90 96       	adiw	r26, 0x20	; 32
 3aa:	8c 93       	st	X, r24
 3ac:	10 c0       	rjmp	.+32     	; 0x3ce <_ZN13Character_LCD8SendCharEh+0x292>
 3ae:	a7 85       	ldd	r26, Z+15	; 0x0f
 3b0:	b0 e0       	ldi	r27, 0x00	; 0
 3b2:	90 96       	adiw	r26, 0x20	; 32
 3b4:	2c 91       	ld	r18, X
 3b6:	90 97       	sbiw	r26, 0x20	; 32
 3b8:	81 e0       	ldi	r24, 0x01	; 1
 3ba:	90 e0       	ldi	r25, 0x00	; 0
 3bc:	01 88       	ldd	r0, Z+17	; 0x11
 3be:	02 c0       	rjmp	.+4      	; 0x3c4 <_ZN13Character_LCD8SendCharEh+0x288>
 3c0:	88 0f       	add	r24, r24
 3c2:	99 1f       	adc	r25, r25
 3c4:	0a 94       	dec	r0
 3c6:	e2 f7       	brpl	.-8      	; 0x3c0 <_ZN13Character_LCD8SendCharEh+0x284>
 3c8:	82 2b       	or	r24, r18
 3ca:	90 96       	adiw	r26, 0x20	; 32
 3cc:	8c 93       	st	X, r24
 3ce:	63 fd       	sbrc	r22, 3
 3d0:	12 c0       	rjmp	.+36     	; 0x3f6 <_ZN13Character_LCD8SendCharEh+0x2ba>
 3d2:	a2 89       	ldd	r26, Z+18	; 0x12
 3d4:	b0 e0       	ldi	r27, 0x00	; 0
 3d6:	90 96       	adiw	r26, 0x20	; 32
 3d8:	2c 91       	ld	r18, X
 3da:	90 97       	sbiw	r26, 0x20	; 32
 3dc:	81 e0       	ldi	r24, 0x01	; 1
 3de:	90 e0       	ldi	r25, 0x00	; 0
 3e0:	04 88       	ldd	r0, Z+20	; 0x14
 3e2:	02 c0       	rjmp	.+4      	; 0x3e8 <_ZN13Character_LCD8SendCharEh+0x2ac>
 3e4:	88 0f       	add	r24, r24
 3e6:	99 1f       	adc	r25, r25
 3e8:	0a 94       	dec	r0
 3ea:	e2 f7       	brpl	.-8      	; 0x3e4 <_ZN13Character_LCD8SendCharEh+0x2a8>
 3ec:	80 95       	com	r24
 3ee:	82 23       	and	r24, r18
 3f0:	90 96       	adiw	r26, 0x20	; 32
 3f2:	8c 93       	st	X, r24
 3f4:	10 c0       	rjmp	.+32     	; 0x416 <__LOCK_REGION_LENGTH__+0x16>
 3f6:	a2 89       	ldd	r26, Z+18	; 0x12
 3f8:	b0 e0       	ldi	r27, 0x00	; 0
 3fa:	90 96       	adiw	r26, 0x20	; 32
 3fc:	2c 91       	ld	r18, X
 3fe:	90 97       	sbiw	r26, 0x20	; 32
 400:	81 e0       	ldi	r24, 0x01	; 1
 402:	90 e0       	ldi	r25, 0x00	; 0
 404:	04 88       	ldd	r0, Z+20	; 0x14
 406:	02 c0       	rjmp	.+4      	; 0x40c <__LOCK_REGION_LENGTH__+0xc>
 408:	88 0f       	add	r24, r24
 40a:	99 1f       	adc	r25, r25
 40c:	0a 94       	dec	r0
 40e:	e2 f7       	brpl	.-8      	; 0x408 <__LOCK_REGION_LENGTH__+0x8>
 410:	82 2b       	or	r24, r18
 412:	90 96       	adiw	r26, 0x20	; 32
 414:	8c 93       	st	X, r24
 416:	a0 81       	ld	r26, Z
 418:	b0 e0       	ldi	r27, 0x00	; 0
 41a:	90 96       	adiw	r26, 0x20	; 32
 41c:	4c 91       	ld	r20, X
 41e:	90 97       	sbiw	r26, 0x20	; 32
 420:	81 e0       	ldi	r24, 0x01	; 1
 422:	90 e0       	ldi	r25, 0x00	; 0
 424:	9c 01       	movw	r18, r24
 426:	02 80       	ldd	r0, Z+2	; 0x02
 428:	02 c0       	rjmp	.+4      	; 0x42e <__LOCK_REGION_LENGTH__+0x2e>
 42a:	22 0f       	add	r18, r18
 42c:	33 1f       	adc	r19, r19
 42e:	0a 94       	dec	r0
 430:	e2 f7       	brpl	.-8      	; 0x42a <__LOCK_REGION_LENGTH__+0x2a>
 432:	24 2b       	or	r18, r20
 434:	90 96       	adiw	r26, 0x20	; 32
 436:	2c 93       	st	X, r18
 438:	a6 81       	ldd	r26, Z+6	; 0x06
 43a:	b0 e0       	ldi	r27, 0x00	; 0
 43c:	90 96       	adiw	r26, 0x20	; 32
 43e:	4c 91       	ld	r20, X
 440:	90 97       	sbiw	r26, 0x20	; 32
 442:	9c 01       	movw	r18, r24
 444:	00 84       	ldd	r0, Z+8	; 0x08
 446:	02 c0       	rjmp	.+4      	; 0x44c <__LOCK_REGION_LENGTH__+0x4c>
 448:	22 0f       	add	r18, r18
 44a:	33 1f       	adc	r19, r19
 44c:	0a 94       	dec	r0
 44e:	e2 f7       	brpl	.-8      	; 0x448 <__LOCK_REGION_LENGTH__+0x48>
 450:	24 2b       	or	r18, r20
 452:	90 96       	adiw	r26, 0x20	; 32
 454:	2c 93       	st	X, r18
 456:	af ec       	ldi	r26, 0xCF	; 207
 458:	b7 e0       	ldi	r27, 0x07	; 7
 45a:	11 97       	sbiw	r26, 0x01	; 1
 45c:	f1 f7       	brne	.-4      	; 0x45a <__LOCK_REGION_LENGTH__+0x5a>
 45e:	00 c0       	rjmp	.+0      	; 0x460 <__LOCK_REGION_LENGTH__+0x60>
 460:	00 00       	nop
 462:	a6 81       	ldd	r26, Z+6	; 0x06
 464:	b0 e0       	ldi	r27, 0x00	; 0
 466:	90 96       	adiw	r26, 0x20	; 32
 468:	3c 91       	ld	r19, X
 46a:	90 97       	sbiw	r26, 0x20	; 32
 46c:	ac 01       	movw	r20, r24
 46e:	00 84       	ldd	r0, Z+8	; 0x08
 470:	02 c0       	rjmp	.+4      	; 0x476 <__LOCK_REGION_LENGTH__+0x76>
 472:	44 0f       	add	r20, r20
 474:	55 1f       	adc	r21, r21
 476:	0a 94       	dec	r0
 478:	e2 f7       	brpl	.-8      	; 0x472 <__LOCK_REGION_LENGTH__+0x72>
 47a:	24 2f       	mov	r18, r20
 47c:	20 95       	com	r18
 47e:	23 23       	and	r18, r19
 480:	90 96       	adiw	r26, 0x20	; 32
 482:	2c 93       	st	X, r18
 484:	a0 81       	ld	r26, Z
 486:	b0 e0       	ldi	r27, 0x00	; 0
 488:	90 96       	adiw	r26, 0x20	; 32
 48a:	2c 91       	ld	r18, X
 48c:	90 97       	sbiw	r26, 0x20	; 32
 48e:	02 80       	ldd	r0, Z+2	; 0x02
 490:	02 c0       	rjmp	.+4      	; 0x496 <__LOCK_REGION_LENGTH__+0x96>
 492:	88 0f       	add	r24, r24
 494:	99 1f       	adc	r25, r25
 496:	0a 94       	dec	r0
 498:	e2 f7       	brpl	.-8      	; 0x492 <__LOCK_REGION_LENGTH__+0x92>
 49a:	80 95       	com	r24
 49c:	82 23       	and	r24, r18
 49e:	90 96       	adiw	r26, 0x20	; 32
 4a0:	8c 93       	st	X, r24
 4a2:	8f ec       	ldi	r24, 0xCF	; 207
 4a4:	97 e0       	ldi	r25, 0x07	; 7
 4a6:	01 97       	sbiw	r24, 0x01	; 1
 4a8:	f1 f7       	brne	.-4      	; 0x4a6 <__LOCK_REGION_LENGTH__+0xa6>
 4aa:	00 c0       	rjmp	.+0      	; 0x4ac <__LOCK_REGION_LENGTH__+0xac>
 4ac:	00 00       	nop
 4ae:	08 95       	ret

000004b0 <_ZN13Character_LCD10SendStringEPc>:
 4b0:	0f 93       	push	r16
 4b2:	1f 93       	push	r17
 4b4:	cf 93       	push	r28
 4b6:	df 93       	push	r29
 4b8:	eb 01       	movw	r28, r22
 4ba:	68 81       	ld	r22, Y
 4bc:	66 23       	and	r22, r22
 4be:	41 f0       	breq	.+16     	; 0x4d0 <_ZN13Character_LCD10SendStringEPc+0x20>
 4c0:	8c 01       	movw	r16, r24
 4c2:	21 96       	adiw	r28, 0x01	; 1
 4c4:	c8 01       	movw	r24, r16
 4c6:	0e 94 9e 00 	call	0x13c	; 0x13c <_ZN13Character_LCD8SendCharEh>
 4ca:	69 91       	ld	r22, Y+
 4cc:	61 11       	cpse	r22, r1
 4ce:	fa cf       	rjmp	.-12     	; 0x4c4 <_ZN13Character_LCD10SendStringEPc+0x14>
 4d0:	df 91       	pop	r29
 4d2:	cf 91       	pop	r28
 4d4:	1f 91       	pop	r17
 4d6:	0f 91       	pop	r16
 4d8:	08 95       	ret

000004da <_ZN13Character_LCD11SendCommandEh>:
 4da:	fc 01       	movw	r30, r24
 4dc:	64 fd       	sbrc	r22, 4
 4de:	12 c0       	rjmp	.+36     	; 0x504 <_ZN13Character_LCD11SendCommandEh+0x2a>
 4e0:	a1 85       	ldd	r26, Z+9	; 0x09
 4e2:	b0 e0       	ldi	r27, 0x00	; 0
 4e4:	90 96       	adiw	r26, 0x20	; 32
 4e6:	2c 91       	ld	r18, X
 4e8:	90 97       	sbiw	r26, 0x20	; 32
 4ea:	81 e0       	ldi	r24, 0x01	; 1
 4ec:	90 e0       	ldi	r25, 0x00	; 0
 4ee:	03 84       	ldd	r0, Z+11	; 0x0b
 4f0:	02 c0       	rjmp	.+4      	; 0x4f6 <_ZN13Character_LCD11SendCommandEh+0x1c>
 4f2:	88 0f       	add	r24, r24
 4f4:	99 1f       	adc	r25, r25
 4f6:	0a 94       	dec	r0
 4f8:	e2 f7       	brpl	.-8      	; 0x4f2 <_ZN13Character_LCD11SendCommandEh+0x18>
 4fa:	80 95       	com	r24
 4fc:	82 23       	and	r24, r18
 4fe:	90 96       	adiw	r26, 0x20	; 32
 500:	8c 93       	st	X, r24
 502:	10 c0       	rjmp	.+32     	; 0x524 <_ZN13Character_LCD11SendCommandEh+0x4a>
 504:	a1 85       	ldd	r26, Z+9	; 0x09
 506:	b0 e0       	ldi	r27, 0x00	; 0
 508:	90 96       	adiw	r26, 0x20	; 32
 50a:	2c 91       	ld	r18, X
 50c:	90 97       	sbiw	r26, 0x20	; 32
 50e:	81 e0       	ldi	r24, 0x01	; 1
 510:	90 e0       	ldi	r25, 0x00	; 0
 512:	03 84       	ldd	r0, Z+11	; 0x0b
 514:	02 c0       	rjmp	.+4      	; 0x51a <_ZN13Character_LCD11SendCommandEh+0x40>
 516:	88 0f       	add	r24, r24
 518:	99 1f       	adc	r25, r25
 51a:	0a 94       	dec	r0
 51c:	e2 f7       	brpl	.-8      	; 0x516 <_ZN13Character_LCD11SendCommandEh+0x3c>
 51e:	82 2b       	or	r24, r18
 520:	90 96       	adiw	r26, 0x20	; 32
 522:	8c 93       	st	X, r24
 524:	65 fd       	sbrc	r22, 5
 526:	12 c0       	rjmp	.+36     	; 0x54c <_ZN13Character_LCD11SendCommandEh+0x72>
 528:	a4 85       	ldd	r26, Z+12	; 0x0c
 52a:	b0 e0       	ldi	r27, 0x00	; 0
 52c:	90 96       	adiw	r26, 0x20	; 32
 52e:	2c 91       	ld	r18, X
 530:	90 97       	sbiw	r26, 0x20	; 32
 532:	81 e0       	ldi	r24, 0x01	; 1
 534:	90 e0       	ldi	r25, 0x00	; 0
 536:	06 84       	ldd	r0, Z+14	; 0x0e
 538:	02 c0       	rjmp	.+4      	; 0x53e <_ZN13Character_LCD11SendCommandEh+0x64>
 53a:	88 0f       	add	r24, r24
 53c:	99 1f       	adc	r25, r25
 53e:	0a 94       	dec	r0
 540:	e2 f7       	brpl	.-8      	; 0x53a <_ZN13Character_LCD11SendCommandEh+0x60>
 542:	80 95       	com	r24
 544:	82 23       	and	r24, r18
 546:	90 96       	adiw	r26, 0x20	; 32
 548:	8c 93       	st	X, r24
 54a:	10 c0       	rjmp	.+32     	; 0x56c <_ZN13Character_LCD11SendCommandEh+0x92>
 54c:	a4 85       	ldd	r26, Z+12	; 0x0c
 54e:	b0 e0       	ldi	r27, 0x00	; 0
 550:	90 96       	adiw	r26, 0x20	; 32
 552:	2c 91       	ld	r18, X
 554:	90 97       	sbiw	r26, 0x20	; 32
 556:	81 e0       	ldi	r24, 0x01	; 1
 558:	90 e0       	ldi	r25, 0x00	; 0
 55a:	06 84       	ldd	r0, Z+14	; 0x0e
 55c:	02 c0       	rjmp	.+4      	; 0x562 <_ZN13Character_LCD11SendCommandEh+0x88>
 55e:	88 0f       	add	r24, r24
 560:	99 1f       	adc	r25, r25
 562:	0a 94       	dec	r0
 564:	e2 f7       	brpl	.-8      	; 0x55e <_ZN13Character_LCD11SendCommandEh+0x84>
 566:	82 2b       	or	r24, r18
 568:	90 96       	adiw	r26, 0x20	; 32
 56a:	8c 93       	st	X, r24
 56c:	66 fd       	sbrc	r22, 6
 56e:	12 c0       	rjmp	.+36     	; 0x594 <_ZN13Character_LCD11SendCommandEh+0xba>
 570:	a7 85       	ldd	r26, Z+15	; 0x0f
 572:	b0 e0       	ldi	r27, 0x00	; 0
 574:	90 96       	adiw	r26, 0x20	; 32
 576:	2c 91       	ld	r18, X
 578:	90 97       	sbiw	r26, 0x20	; 32
 57a:	81 e0       	ldi	r24, 0x01	; 1
 57c:	90 e0       	ldi	r25, 0x00	; 0
 57e:	01 88       	ldd	r0, Z+17	; 0x11
 580:	02 c0       	rjmp	.+4      	; 0x586 <_ZN13Character_LCD11SendCommandEh+0xac>
 582:	88 0f       	add	r24, r24
 584:	99 1f       	adc	r25, r25
 586:	0a 94       	dec	r0
 588:	e2 f7       	brpl	.-8      	; 0x582 <_ZN13Character_LCD11SendCommandEh+0xa8>
 58a:	80 95       	com	r24
 58c:	82 23       	and	r24, r18
 58e:	90 96       	adiw	r26, 0x20	; 32
 590:	8c 93       	st	X, r24
 592:	10 c0       	rjmp	.+32     	; 0x5b4 <_ZN13Character_LCD11SendCommandEh+0xda>
 594:	a7 85       	ldd	r26, Z+15	; 0x0f
 596:	b0 e0       	ldi	r27, 0x00	; 0
 598:	90 96       	adiw	r26, 0x20	; 32
 59a:	2c 91       	ld	r18, X
 59c:	90 97       	sbiw	r26, 0x20	; 32
 59e:	81 e0       	ldi	r24, 0x01	; 1
 5a0:	90 e0       	ldi	r25, 0x00	; 0
 5a2:	01 88       	ldd	r0, Z+17	; 0x11
 5a4:	02 c0       	rjmp	.+4      	; 0x5aa <_ZN13Character_LCD11SendCommandEh+0xd0>
 5a6:	88 0f       	add	r24, r24
 5a8:	99 1f       	adc	r25, r25
 5aa:	0a 94       	dec	r0
 5ac:	e2 f7       	brpl	.-8      	; 0x5a6 <_ZN13Character_LCD11SendCommandEh+0xcc>
 5ae:	82 2b       	or	r24, r18
 5b0:	90 96       	adiw	r26, 0x20	; 32
 5b2:	8c 93       	st	X, r24
 5b4:	66 23       	and	r22, r22
 5b6:	94 f0       	brlt	.+36     	; 0x5dc <_ZN13Character_LCD11SendCommandEh+0x102>
 5b8:	a2 89       	ldd	r26, Z+18	; 0x12
 5ba:	b0 e0       	ldi	r27, 0x00	; 0
 5bc:	90 96       	adiw	r26, 0x20	; 32
 5be:	2c 91       	ld	r18, X
 5c0:	90 97       	sbiw	r26, 0x20	; 32
 5c2:	81 e0       	ldi	r24, 0x01	; 1
 5c4:	90 e0       	ldi	r25, 0x00	; 0
 5c6:	04 88       	ldd	r0, Z+20	; 0x14
 5c8:	02 c0       	rjmp	.+4      	; 0x5ce <_ZN13Character_LCD11SendCommandEh+0xf4>
 5ca:	88 0f       	add	r24, r24
 5cc:	99 1f       	adc	r25, r25
 5ce:	0a 94       	dec	r0
 5d0:	e2 f7       	brpl	.-8      	; 0x5ca <_ZN13Character_LCD11SendCommandEh+0xf0>
 5d2:	80 95       	com	r24
 5d4:	82 23       	and	r24, r18
 5d6:	90 96       	adiw	r26, 0x20	; 32
 5d8:	8c 93       	st	X, r24
 5da:	10 c0       	rjmp	.+32     	; 0x5fc <_ZN13Character_LCD11SendCommandEh+0x122>
 5dc:	a2 89       	ldd	r26, Z+18	; 0x12
 5de:	b0 e0       	ldi	r27, 0x00	; 0
 5e0:	90 96       	adiw	r26, 0x20	; 32
 5e2:	2c 91       	ld	r18, X
 5e4:	90 97       	sbiw	r26, 0x20	; 32
 5e6:	81 e0       	ldi	r24, 0x01	; 1
 5e8:	90 e0       	ldi	r25, 0x00	; 0
 5ea:	04 88       	ldd	r0, Z+20	; 0x14
 5ec:	02 c0       	rjmp	.+4      	; 0x5f2 <_ZN13Character_LCD11SendCommandEh+0x118>
 5ee:	88 0f       	add	r24, r24
 5f0:	99 1f       	adc	r25, r25
 5f2:	0a 94       	dec	r0
 5f4:	e2 f7       	brpl	.-8      	; 0x5ee <_ZN13Character_LCD11SendCommandEh+0x114>
 5f6:	82 2b       	or	r24, r18
 5f8:	90 96       	adiw	r26, 0x20	; 32
 5fa:	8c 93       	st	X, r24
 5fc:	a6 81       	ldd	r26, Z+6	; 0x06
 5fe:	b0 e0       	ldi	r27, 0x00	; 0
 600:	90 96       	adiw	r26, 0x20	; 32
 602:	4c 91       	ld	r20, X
 604:	90 97       	sbiw	r26, 0x20	; 32
 606:	81 e0       	ldi	r24, 0x01	; 1
 608:	90 e0       	ldi	r25, 0x00	; 0
 60a:	9c 01       	movw	r18, r24
 60c:	00 84       	ldd	r0, Z+8	; 0x08
 60e:	02 c0       	rjmp	.+4      	; 0x614 <_ZN13Character_LCD11SendCommandEh+0x13a>
 610:	22 0f       	add	r18, r18
 612:	33 1f       	adc	r19, r19
 614:	0a 94       	dec	r0
 616:	e2 f7       	brpl	.-8      	; 0x610 <_ZN13Character_LCD11SendCommandEh+0x136>
 618:	24 2b       	or	r18, r20
 61a:	90 96       	adiw	r26, 0x20	; 32
 61c:	2c 93       	st	X, r18
 61e:	af ec       	ldi	r26, 0xCF	; 207
 620:	b7 e0       	ldi	r27, 0x07	; 7
 622:	11 97       	sbiw	r26, 0x01	; 1
 624:	f1 f7       	brne	.-4      	; 0x622 <_ZN13Character_LCD11SendCommandEh+0x148>
 626:	00 c0       	rjmp	.+0      	; 0x628 <_ZN13Character_LCD11SendCommandEh+0x14e>
 628:	00 00       	nop
 62a:	a6 81       	ldd	r26, Z+6	; 0x06
 62c:	b0 e0       	ldi	r27, 0x00	; 0
 62e:	90 96       	adiw	r26, 0x20	; 32
 630:	2c 91       	ld	r18, X
 632:	90 97       	sbiw	r26, 0x20	; 32
 634:	00 84       	ldd	r0, Z+8	; 0x08
 636:	02 c0       	rjmp	.+4      	; 0x63c <_ZN13Character_LCD11SendCommandEh+0x162>
 638:	88 0f       	add	r24, r24
 63a:	99 1f       	adc	r25, r25
 63c:	0a 94       	dec	r0
 63e:	e2 f7       	brpl	.-8      	; 0x638 <_ZN13Character_LCD11SendCommandEh+0x15e>
 640:	80 95       	com	r24
 642:	82 23       	and	r24, r18
 644:	90 96       	adiw	r26, 0x20	; 32
 646:	8c 93       	st	X, r24
 648:	8f ec       	ldi	r24, 0xCF	; 207
 64a:	97 e0       	ldi	r25, 0x07	; 7
 64c:	01 97       	sbiw	r24, 0x01	; 1
 64e:	f1 f7       	brne	.-4      	; 0x64c <_ZN13Character_LCD11SendCommandEh+0x172>
 650:	00 c0       	rjmp	.+0      	; 0x652 <_ZN13Character_LCD11SendCommandEh+0x178>
 652:	00 00       	nop
 654:	60 fd       	sbrc	r22, 0
 656:	12 c0       	rjmp	.+36     	; 0x67c <_ZN13Character_LCD11SendCommandEh+0x1a2>
 658:	a1 85       	ldd	r26, Z+9	; 0x09
 65a:	b0 e0       	ldi	r27, 0x00	; 0
 65c:	90 96       	adiw	r26, 0x20	; 32
 65e:	2c 91       	ld	r18, X
 660:	90 97       	sbiw	r26, 0x20	; 32
 662:	81 e0       	ldi	r24, 0x01	; 1
 664:	90 e0       	ldi	r25, 0x00	; 0
 666:	03 84       	ldd	r0, Z+11	; 0x0b
 668:	02 c0       	rjmp	.+4      	; 0x66e <_ZN13Character_LCD11SendCommandEh+0x194>
 66a:	88 0f       	add	r24, r24
 66c:	99 1f       	adc	r25, r25
 66e:	0a 94       	dec	r0
 670:	e2 f7       	brpl	.-8      	; 0x66a <_ZN13Character_LCD11SendCommandEh+0x190>
 672:	80 95       	com	r24
 674:	82 23       	and	r24, r18
 676:	90 96       	adiw	r26, 0x20	; 32
 678:	8c 93       	st	X, r24
 67a:	10 c0       	rjmp	.+32     	; 0x69c <_ZN13Character_LCD11SendCommandEh+0x1c2>
 67c:	a1 85       	ldd	r26, Z+9	; 0x09
 67e:	b0 e0       	ldi	r27, 0x00	; 0
 680:	90 96       	adiw	r26, 0x20	; 32
 682:	2c 91       	ld	r18, X
 684:	90 97       	sbiw	r26, 0x20	; 32
 686:	81 e0       	ldi	r24, 0x01	; 1
 688:	90 e0       	ldi	r25, 0x00	; 0
 68a:	03 84       	ldd	r0, Z+11	; 0x0b
 68c:	02 c0       	rjmp	.+4      	; 0x692 <_ZN13Character_LCD11SendCommandEh+0x1b8>
 68e:	88 0f       	add	r24, r24
 690:	99 1f       	adc	r25, r25
 692:	0a 94       	dec	r0
 694:	e2 f7       	brpl	.-8      	; 0x68e <_ZN13Character_LCD11SendCommandEh+0x1b4>
 696:	82 2b       	or	r24, r18
 698:	90 96       	adiw	r26, 0x20	; 32
 69a:	8c 93       	st	X, r24
 69c:	61 fd       	sbrc	r22, 1
 69e:	12 c0       	rjmp	.+36     	; 0x6c4 <_ZN13Character_LCD11SendCommandEh+0x1ea>
 6a0:	a4 85       	ldd	r26, Z+12	; 0x0c
 6a2:	b0 e0       	ldi	r27, 0x00	; 0
 6a4:	90 96       	adiw	r26, 0x20	; 32
 6a6:	2c 91       	ld	r18, X
 6a8:	90 97       	sbiw	r26, 0x20	; 32
 6aa:	81 e0       	ldi	r24, 0x01	; 1
 6ac:	90 e0       	ldi	r25, 0x00	; 0
 6ae:	06 84       	ldd	r0, Z+14	; 0x0e
 6b0:	02 c0       	rjmp	.+4      	; 0x6b6 <_ZN13Character_LCD11SendCommandEh+0x1dc>
 6b2:	88 0f       	add	r24, r24
 6b4:	99 1f       	adc	r25, r25
 6b6:	0a 94       	dec	r0
 6b8:	e2 f7       	brpl	.-8      	; 0x6b2 <_ZN13Character_LCD11SendCommandEh+0x1d8>
 6ba:	80 95       	com	r24
 6bc:	82 23       	and	r24, r18
 6be:	90 96       	adiw	r26, 0x20	; 32
 6c0:	8c 93       	st	X, r24
 6c2:	10 c0       	rjmp	.+32     	; 0x6e4 <_ZN13Character_LCD11SendCommandEh+0x20a>
 6c4:	a4 85       	ldd	r26, Z+12	; 0x0c
 6c6:	b0 e0       	ldi	r27, 0x00	; 0
 6c8:	90 96       	adiw	r26, 0x20	; 32
 6ca:	2c 91       	ld	r18, X
 6cc:	90 97       	sbiw	r26, 0x20	; 32
 6ce:	81 e0       	ldi	r24, 0x01	; 1
 6d0:	90 e0       	ldi	r25, 0x00	; 0
 6d2:	06 84       	ldd	r0, Z+14	; 0x0e
 6d4:	02 c0       	rjmp	.+4      	; 0x6da <_ZN13Character_LCD11SendCommandEh+0x200>
 6d6:	88 0f       	add	r24, r24
 6d8:	99 1f       	adc	r25, r25
 6da:	0a 94       	dec	r0
 6dc:	e2 f7       	brpl	.-8      	; 0x6d6 <_ZN13Character_LCD11SendCommandEh+0x1fc>
 6de:	82 2b       	or	r24, r18
 6e0:	90 96       	adiw	r26, 0x20	; 32
 6e2:	8c 93       	st	X, r24
 6e4:	62 fd       	sbrc	r22, 2
 6e6:	12 c0       	rjmp	.+36     	; 0x70c <_ZN13Character_LCD11SendCommandEh+0x232>
 6e8:	a7 85       	ldd	r26, Z+15	; 0x0f
 6ea:	b0 e0       	ldi	r27, 0x00	; 0
 6ec:	90 96       	adiw	r26, 0x20	; 32
 6ee:	2c 91       	ld	r18, X
 6f0:	90 97       	sbiw	r26, 0x20	; 32
 6f2:	81 e0       	ldi	r24, 0x01	; 1
 6f4:	90 e0       	ldi	r25, 0x00	; 0
 6f6:	01 88       	ldd	r0, Z+17	; 0x11
 6f8:	02 c0       	rjmp	.+4      	; 0x6fe <_ZN13Character_LCD11SendCommandEh+0x224>
 6fa:	88 0f       	add	r24, r24
 6fc:	99 1f       	adc	r25, r25
 6fe:	0a 94       	dec	r0
 700:	e2 f7       	brpl	.-8      	; 0x6fa <_ZN13Character_LCD11SendCommandEh+0x220>
 702:	80 95       	com	r24
 704:	82 23       	and	r24, r18
 706:	90 96       	adiw	r26, 0x20	; 32
 708:	8c 93       	st	X, r24
 70a:	10 c0       	rjmp	.+32     	; 0x72c <_ZN13Character_LCD11SendCommandEh+0x252>
 70c:	a7 85       	ldd	r26, Z+15	; 0x0f
 70e:	b0 e0       	ldi	r27, 0x00	; 0
 710:	90 96       	adiw	r26, 0x20	; 32
 712:	2c 91       	ld	r18, X
 714:	90 97       	sbiw	r26, 0x20	; 32
 716:	81 e0       	ldi	r24, 0x01	; 1
 718:	90 e0       	ldi	r25, 0x00	; 0
 71a:	01 88       	ldd	r0, Z+17	; 0x11
 71c:	02 c0       	rjmp	.+4      	; 0x722 <_ZN13Character_LCD11SendCommandEh+0x248>
 71e:	88 0f       	add	r24, r24
 720:	99 1f       	adc	r25, r25
 722:	0a 94       	dec	r0
 724:	e2 f7       	brpl	.-8      	; 0x71e <_ZN13Character_LCD11SendCommandEh+0x244>
 726:	82 2b       	or	r24, r18
 728:	90 96       	adiw	r26, 0x20	; 32
 72a:	8c 93       	st	X, r24
 72c:	63 fd       	sbrc	r22, 3
 72e:	12 c0       	rjmp	.+36     	; 0x754 <_ZN13Character_LCD11SendCommandEh+0x27a>
 730:	a2 89       	ldd	r26, Z+18	; 0x12
 732:	b0 e0       	ldi	r27, 0x00	; 0
 734:	90 96       	adiw	r26, 0x20	; 32
 736:	2c 91       	ld	r18, X
 738:	90 97       	sbiw	r26, 0x20	; 32
 73a:	81 e0       	ldi	r24, 0x01	; 1
 73c:	90 e0       	ldi	r25, 0x00	; 0
 73e:	04 88       	ldd	r0, Z+20	; 0x14
 740:	02 c0       	rjmp	.+4      	; 0x746 <_ZN13Character_LCD11SendCommandEh+0x26c>
 742:	88 0f       	add	r24, r24
 744:	99 1f       	adc	r25, r25
 746:	0a 94       	dec	r0
 748:	e2 f7       	brpl	.-8      	; 0x742 <_ZN13Character_LCD11SendCommandEh+0x268>
 74a:	80 95       	com	r24
 74c:	82 23       	and	r24, r18
 74e:	90 96       	adiw	r26, 0x20	; 32
 750:	8c 93       	st	X, r24
 752:	10 c0       	rjmp	.+32     	; 0x774 <_ZN13Character_LCD11SendCommandEh+0x29a>
 754:	a2 89       	ldd	r26, Z+18	; 0x12
 756:	b0 e0       	ldi	r27, 0x00	; 0
 758:	90 96       	adiw	r26, 0x20	; 32
 75a:	2c 91       	ld	r18, X
 75c:	90 97       	sbiw	r26, 0x20	; 32
 75e:	81 e0       	ldi	r24, 0x01	; 1
 760:	90 e0       	ldi	r25, 0x00	; 0
 762:	04 88       	ldd	r0, Z+20	; 0x14
 764:	02 c0       	rjmp	.+4      	; 0x76a <_ZN13Character_LCD11SendCommandEh+0x290>
 766:	88 0f       	add	r24, r24
 768:	99 1f       	adc	r25, r25
 76a:	0a 94       	dec	r0
 76c:	e2 f7       	brpl	.-8      	; 0x766 <_ZN13Character_LCD11SendCommandEh+0x28c>
 76e:	82 2b       	or	r24, r18
 770:	90 96       	adiw	r26, 0x20	; 32
 772:	8c 93       	st	X, r24
 774:	a6 81       	ldd	r26, Z+6	; 0x06
 776:	b0 e0       	ldi	r27, 0x00	; 0
 778:	90 96       	adiw	r26, 0x20	; 32
 77a:	4c 91       	ld	r20, X
 77c:	90 97       	sbiw	r26, 0x20	; 32
 77e:	81 e0       	ldi	r24, 0x01	; 1
 780:	90 e0       	ldi	r25, 0x00	; 0
 782:	9c 01       	movw	r18, r24
 784:	00 84       	ldd	r0, Z+8	; 0x08
 786:	02 c0       	rjmp	.+4      	; 0x78c <_ZN13Character_LCD11SendCommandEh+0x2b2>
 788:	22 0f       	add	r18, r18
 78a:	33 1f       	adc	r19, r19
 78c:	0a 94       	dec	r0
 78e:	e2 f7       	brpl	.-8      	; 0x788 <_ZN13Character_LCD11SendCommandEh+0x2ae>
 790:	24 2b       	or	r18, r20
 792:	90 96       	adiw	r26, 0x20	; 32
 794:	2c 93       	st	X, r18
 796:	af ec       	ldi	r26, 0xCF	; 207
 798:	b7 e0       	ldi	r27, 0x07	; 7
 79a:	11 97       	sbiw	r26, 0x01	; 1
 79c:	f1 f7       	brne	.-4      	; 0x79a <_ZN13Character_LCD11SendCommandEh+0x2c0>
 79e:	00 c0       	rjmp	.+0      	; 0x7a0 <_ZN13Character_LCD11SendCommandEh+0x2c6>
 7a0:	00 00       	nop
 7a2:	a6 81       	ldd	r26, Z+6	; 0x06
 7a4:	b0 e0       	ldi	r27, 0x00	; 0
 7a6:	90 96       	adiw	r26, 0x20	; 32
 7a8:	2c 91       	ld	r18, X
 7aa:	90 97       	sbiw	r26, 0x20	; 32
 7ac:	00 84       	ldd	r0, Z+8	; 0x08
 7ae:	02 c0       	rjmp	.+4      	; 0x7b4 <_ZN13Character_LCD11SendCommandEh+0x2da>
 7b0:	88 0f       	add	r24, r24
 7b2:	99 1f       	adc	r25, r25
 7b4:	0a 94       	dec	r0
 7b6:	e2 f7       	brpl	.-8      	; 0x7b0 <_ZN13Character_LCD11SendCommandEh+0x2d6>
 7b8:	80 95       	com	r24
 7ba:	82 23       	and	r24, r18
 7bc:	90 96       	adiw	r26, 0x20	; 32
 7be:	8c 93       	st	X, r24
 7c0:	8f ec       	ldi	r24, 0xCF	; 207
 7c2:	97 e0       	ldi	r25, 0x07	; 7
 7c4:	01 97       	sbiw	r24, 0x01	; 1
 7c6:	f1 f7       	brne	.-4      	; 0x7c4 <_ZN13Character_LCD11SendCommandEh+0x2ea>
 7c8:	00 c0       	rjmp	.+0      	; 0x7ca <_ZN13Character_LCD11SendCommandEh+0x2f0>
 7ca:	00 00       	nop
 7cc:	08 95       	ret

000007ce <_ZN13Character_LCD3ClrEv>:
 7ce:	61 e0       	ldi	r22, 0x01	; 1
 7d0:	0e 94 6d 02 	call	0x4da	; 0x4da <_ZN13Character_LCD11SendCommandEh>
 7d4:	8f ec       	ldi	r24, 0xCF	; 207
 7d6:	97 e0       	ldi	r25, 0x07	; 7
 7d8:	01 97       	sbiw	r24, 0x01	; 1
 7da:	f1 f7       	brne	.-4      	; 0x7d8 <_ZN13Character_LCD3ClrEv+0xa>
 7dc:	00 c0       	rjmp	.+0      	; 0x7de <_ZN13Character_LCD3ClrEv+0x10>
 7de:	00 00       	nop
 7e0:	08 95       	ret

000007e2 <_ZN13Character_LCD4InitEhh>:
 7e2:	cf 93       	push	r28
 7e4:	df 93       	push	r29
 7e6:	ec 01       	movw	r28, r24
 7e8:	8f e2       	ldi	r24, 0x2F	; 47
 7ea:	95 e7       	ldi	r25, 0x75	; 117
 7ec:	01 97       	sbiw	r24, 0x01	; 1
 7ee:	f1 f7       	brne	.-4      	; 0x7ec <_ZN13Character_LCD4InitEhh+0xa>
 7f0:	00 c0       	rjmp	.+0      	; 0x7f2 <_ZN13Character_LCD4InitEhh+0x10>
 7f2:	00 00       	nop
 7f4:	e9 85       	ldd	r30, Y+9	; 0x09
 7f6:	f0 e0       	ldi	r31, 0x00	; 0
 7f8:	30 a1       	ldd	r19, Z+32	; 0x20
 7fa:	81 e0       	ldi	r24, 0x01	; 1
 7fc:	90 e0       	ldi	r25, 0x00	; 0
 7fe:	ac 01       	movw	r20, r24
 800:	0b 84       	ldd	r0, Y+11	; 0x0b
 802:	02 c0       	rjmp	.+4      	; 0x808 <_ZN13Character_LCD4InitEhh+0x26>
 804:	44 0f       	add	r20, r20
 806:	55 1f       	adc	r21, r21
 808:	0a 94       	dec	r0
 80a:	e2 f7       	brpl	.-8      	; 0x804 <_ZN13Character_LCD4InitEhh+0x22>
 80c:	24 2f       	mov	r18, r20
 80e:	20 95       	com	r18
 810:	23 23       	and	r18, r19
 812:	20 a3       	std	Z+32, r18	; 0x20
 814:	ec 85       	ldd	r30, Y+12	; 0x0c
 816:	f0 e0       	ldi	r31, 0x00	; 0
 818:	30 a1       	ldd	r19, Z+32	; 0x20
 81a:	ac 01       	movw	r20, r24
 81c:	0e 84       	ldd	r0, Y+14	; 0x0e
 81e:	02 c0       	rjmp	.+4      	; 0x824 <_ZN13Character_LCD4InitEhh+0x42>
 820:	44 0f       	add	r20, r20
 822:	55 1f       	adc	r21, r21
 824:	0a 94       	dec	r0
 826:	e2 f7       	brpl	.-8      	; 0x820 <_ZN13Character_LCD4InitEhh+0x3e>
 828:	24 2f       	mov	r18, r20
 82a:	20 95       	com	r18
 82c:	23 23       	and	r18, r19
 82e:	20 a3       	std	Z+32, r18	; 0x20
 830:	ef 85       	ldd	r30, Y+15	; 0x0f
 832:	f0 e0       	ldi	r31, 0x00	; 0
 834:	30 a1       	ldd	r19, Z+32	; 0x20
 836:	ac 01       	movw	r20, r24
 838:	09 88       	ldd	r0, Y+17	; 0x11
 83a:	02 c0       	rjmp	.+4      	; 0x840 <_ZN13Character_LCD4InitEhh+0x5e>
 83c:	44 0f       	add	r20, r20
 83e:	55 1f       	adc	r21, r21
 840:	0a 94       	dec	r0
 842:	e2 f7       	brpl	.-8      	; 0x83c <_ZN13Character_LCD4InitEhh+0x5a>
 844:	24 2f       	mov	r18, r20
 846:	20 95       	com	r18
 848:	23 23       	and	r18, r19
 84a:	20 a3       	std	Z+32, r18	; 0x20
 84c:	ea 89       	ldd	r30, Y+18	; 0x12
 84e:	f0 e0       	ldi	r31, 0x00	; 0
 850:	30 a1       	ldd	r19, Z+32	; 0x20
 852:	ac 01       	movw	r20, r24
 854:	0c 88       	ldd	r0, Y+20	; 0x14
 856:	02 c0       	rjmp	.+4      	; 0x85c <_ZN13Character_LCD4InitEhh+0x7a>
 858:	44 0f       	add	r20, r20
 85a:	55 1f       	adc	r21, r21
 85c:	0a 94       	dec	r0
 85e:	e2 f7       	brpl	.-8      	; 0x858 <_ZN13Character_LCD4InitEhh+0x76>
 860:	24 2f       	mov	r18, r20
 862:	20 95       	com	r18
 864:	23 23       	and	r18, r19
 866:	20 a3       	std	Z+32, r18	; 0x20
 868:	ee 81       	ldd	r30, Y+6	; 0x06
 86a:	f0 e0       	ldi	r31, 0x00	; 0
 86c:	30 a1       	ldd	r19, Z+32	; 0x20
 86e:	ac 01       	movw	r20, r24
 870:	08 84       	ldd	r0, Y+8	; 0x08
 872:	02 c0       	rjmp	.+4      	; 0x878 <__stack+0x19>
 874:	44 0f       	add	r20, r20
 876:	55 1f       	adc	r21, r21
 878:	0a 94       	dec	r0
 87a:	e2 f7       	brpl	.-8      	; 0x874 <__stack+0x15>
 87c:	24 2f       	mov	r18, r20
 87e:	20 95       	com	r18
 880:	23 23       	and	r18, r19
 882:	20 a3       	std	Z+32, r18	; 0x20
 884:	ea 85       	ldd	r30, Y+10	; 0x0a
 886:	f0 e0       	ldi	r31, 0x00	; 0
 888:	40 a1       	ldd	r20, Z+32	; 0x20
 88a:	9c 01       	movw	r18, r24
 88c:	0b 84       	ldd	r0, Y+11	; 0x0b
 88e:	02 c0       	rjmp	.+4      	; 0x894 <__stack+0x35>
 890:	22 0f       	add	r18, r18
 892:	33 1f       	adc	r19, r19
 894:	0a 94       	dec	r0
 896:	e2 f7       	brpl	.-8      	; 0x890 <__stack+0x31>
 898:	24 2b       	or	r18, r20
 89a:	20 a3       	std	Z+32, r18	; 0x20
 89c:	ed 85       	ldd	r30, Y+13	; 0x0d
 89e:	f0 e0       	ldi	r31, 0x00	; 0
 8a0:	40 a1       	ldd	r20, Z+32	; 0x20
 8a2:	9c 01       	movw	r18, r24
 8a4:	0e 84       	ldd	r0, Y+14	; 0x0e
 8a6:	02 c0       	rjmp	.+4      	; 0x8ac <__stack+0x4d>
 8a8:	22 0f       	add	r18, r18
 8aa:	33 1f       	adc	r19, r19
 8ac:	0a 94       	dec	r0
 8ae:	e2 f7       	brpl	.-8      	; 0x8a8 <__stack+0x49>
 8b0:	24 2b       	or	r18, r20
 8b2:	20 a3       	std	Z+32, r18	; 0x20
 8b4:	e8 89       	ldd	r30, Y+16	; 0x10
 8b6:	f0 e0       	ldi	r31, 0x00	; 0
 8b8:	40 a1       	ldd	r20, Z+32	; 0x20
 8ba:	9c 01       	movw	r18, r24
 8bc:	09 88       	ldd	r0, Y+17	; 0x11
 8be:	02 c0       	rjmp	.+4      	; 0x8c4 <__stack+0x65>
 8c0:	22 0f       	add	r18, r18
 8c2:	33 1f       	adc	r19, r19
 8c4:	0a 94       	dec	r0
 8c6:	e2 f7       	brpl	.-8      	; 0x8c0 <__stack+0x61>
 8c8:	24 2b       	or	r18, r20
 8ca:	20 a3       	std	Z+32, r18	; 0x20
 8cc:	eb 89       	ldd	r30, Y+19	; 0x13
 8ce:	f0 e0       	ldi	r31, 0x00	; 0
 8d0:	40 a1       	ldd	r20, Z+32	; 0x20
 8d2:	9c 01       	movw	r18, r24
 8d4:	0c 88       	ldd	r0, Y+20	; 0x14
 8d6:	02 c0       	rjmp	.+4      	; 0x8dc <__stack+0x7d>
 8d8:	22 0f       	add	r18, r18
 8da:	33 1f       	adc	r19, r19
 8dc:	0a 94       	dec	r0
 8de:	e2 f7       	brpl	.-8      	; 0x8d8 <__stack+0x79>
 8e0:	24 2b       	or	r18, r20
 8e2:	20 a3       	std	Z+32, r18	; 0x20
 8e4:	ef 81       	ldd	r30, Y+7	; 0x07
 8e6:	f0 e0       	ldi	r31, 0x00	; 0
 8e8:	40 a1       	ldd	r20, Z+32	; 0x20
 8ea:	9c 01       	movw	r18, r24
 8ec:	08 84       	ldd	r0, Y+8	; 0x08
 8ee:	02 c0       	rjmp	.+4      	; 0x8f4 <__stack+0x95>
 8f0:	22 0f       	add	r18, r18
 8f2:	33 1f       	adc	r19, r19
 8f4:	0a 94       	dec	r0
 8f6:	e2 f7       	brpl	.-8      	; 0x8f0 <__stack+0x91>
 8f8:	24 2b       	or	r18, r20
 8fa:	20 a3       	std	Z+32, r18	; 0x20
 8fc:	e9 81       	ldd	r30, Y+1	; 0x01
 8fe:	f0 e0       	ldi	r31, 0x00	; 0
 900:	40 a1       	ldd	r20, Z+32	; 0x20
 902:	9c 01       	movw	r18, r24
 904:	0a 80       	ldd	r0, Y+2	; 0x02
 906:	02 c0       	rjmp	.+4      	; 0x90c <__stack+0xad>
 908:	22 0f       	add	r18, r18
 90a:	33 1f       	adc	r19, r19
 90c:	0a 94       	dec	r0
 90e:	e2 f7       	brpl	.-8      	; 0x908 <__stack+0xa9>
 910:	24 2b       	or	r18, r20
 912:	20 a3       	std	Z+32, r18	; 0x20
 914:	ec 81       	ldd	r30, Y+4	; 0x04
 916:	f0 e0       	ldi	r31, 0x00	; 0
 918:	40 a1       	ldd	r20, Z+32	; 0x20
 91a:	9c 01       	movw	r18, r24
 91c:	0d 80       	ldd	r0, Y+5	; 0x05
 91e:	02 c0       	rjmp	.+4      	; 0x924 <__stack+0xc5>
 920:	22 0f       	add	r18, r18
 922:	33 1f       	adc	r19, r19
 924:	0a 94       	dec	r0
 926:	e2 f7       	brpl	.-8      	; 0x920 <__stack+0xc1>
 928:	24 2b       	or	r18, r20
 92a:	20 a3       	std	Z+32, r18	; 0x20
 92c:	e9 85       	ldd	r30, Y+9	; 0x09
 92e:	f0 e0       	ldi	r31, 0x00	; 0
 930:	40 a1       	ldd	r20, Z+32	; 0x20
 932:	9c 01       	movw	r18, r24
 934:	0b 84       	ldd	r0, Y+11	; 0x0b
 936:	02 c0       	rjmp	.+4      	; 0x93c <__stack+0xdd>
 938:	22 0f       	add	r18, r18
 93a:	33 1f       	adc	r19, r19
 93c:	0a 94       	dec	r0
 93e:	e2 f7       	brpl	.-8      	; 0x938 <__stack+0xd9>
 940:	24 2b       	or	r18, r20
 942:	20 a3       	std	Z+32, r18	; 0x20
 944:	ec 85       	ldd	r30, Y+12	; 0x0c
 946:	f0 e0       	ldi	r31, 0x00	; 0
 948:	40 a1       	ldd	r20, Z+32	; 0x20
 94a:	9c 01       	movw	r18, r24
 94c:	0e 84       	ldd	r0, Y+14	; 0x0e
 94e:	02 c0       	rjmp	.+4      	; 0x954 <__stack+0xf5>
 950:	22 0f       	add	r18, r18
 952:	33 1f       	adc	r19, r19
 954:	0a 94       	dec	r0
 956:	e2 f7       	brpl	.-8      	; 0x950 <__stack+0xf1>
 958:	24 2b       	or	r18, r20
 95a:	20 a3       	std	Z+32, r18	; 0x20
 95c:	ef 85       	ldd	r30, Y+15	; 0x0f
 95e:	f0 e0       	ldi	r31, 0x00	; 0
 960:	30 a1       	ldd	r19, Z+32	; 0x20
 962:	ac 01       	movw	r20, r24
 964:	09 88       	ldd	r0, Y+17	; 0x11
 966:	02 c0       	rjmp	.+4      	; 0x96c <__stack+0x10d>
 968:	44 0f       	add	r20, r20
 96a:	55 1f       	adc	r21, r21
 96c:	0a 94       	dec	r0
 96e:	e2 f7       	brpl	.-8      	; 0x968 <__stack+0x109>
 970:	24 2f       	mov	r18, r20
 972:	20 95       	com	r18
 974:	23 23       	and	r18, r19
 976:	20 a3       	std	Z+32, r18	; 0x20
 978:	ea 89       	ldd	r30, Y+18	; 0x12
 97a:	f0 e0       	ldi	r31, 0x00	; 0
 97c:	30 a1       	ldd	r19, Z+32	; 0x20
 97e:	ac 01       	movw	r20, r24
 980:	0c 88       	ldd	r0, Y+20	; 0x14
 982:	02 c0       	rjmp	.+4      	; 0x988 <__stack+0x129>
 984:	44 0f       	add	r20, r20
 986:	55 1f       	adc	r21, r21
 988:	0a 94       	dec	r0
 98a:	e2 f7       	brpl	.-8      	; 0x984 <__stack+0x125>
 98c:	24 2f       	mov	r18, r20
 98e:	20 95       	com	r18
 990:	23 23       	and	r18, r19
 992:	20 a3       	std	Z+32, r18	; 0x20
 994:	ee 81       	ldd	r30, Y+6	; 0x06
 996:	f0 e0       	ldi	r31, 0x00	; 0
 998:	40 a1       	ldd	r20, Z+32	; 0x20
 99a:	9c 01       	movw	r18, r24
 99c:	08 84       	ldd	r0, Y+8	; 0x08
 99e:	02 c0       	rjmp	.+4      	; 0x9a4 <__stack+0x145>
 9a0:	22 0f       	add	r18, r18
 9a2:	33 1f       	adc	r19, r19
 9a4:	0a 94       	dec	r0
 9a6:	e2 f7       	brpl	.-8      	; 0x9a0 <__stack+0x141>
 9a8:	24 2b       	or	r18, r20
 9aa:	20 a3       	std	Z+32, r18	; 0x20
 9ac:	e8 81       	ld	r30, Y
 9ae:	f0 e0       	ldi	r31, 0x00	; 0
 9b0:	30 a1       	ldd	r19, Z+32	; 0x20
 9b2:	ac 01       	movw	r20, r24
 9b4:	0a 80       	ldd	r0, Y+2	; 0x02
 9b6:	02 c0       	rjmp	.+4      	; 0x9bc <__stack+0x15d>
 9b8:	44 0f       	add	r20, r20
 9ba:	55 1f       	adc	r21, r21
 9bc:	0a 94       	dec	r0
 9be:	e2 f7       	brpl	.-8      	; 0x9b8 <__stack+0x159>
 9c0:	24 2f       	mov	r18, r20
 9c2:	20 95       	com	r18
 9c4:	23 23       	and	r18, r19
 9c6:	20 a3       	std	Z+32, r18	; 0x20
 9c8:	eb 81       	ldd	r30, Y+3	; 0x03
 9ca:	f0 e0       	ldi	r31, 0x00	; 0
 9cc:	30 a1       	ldd	r19, Z+32	; 0x20
 9ce:	ac 01       	movw	r20, r24
 9d0:	0d 80       	ldd	r0, Y+5	; 0x05
 9d2:	02 c0       	rjmp	.+4      	; 0x9d8 <__stack+0x179>
 9d4:	44 0f       	add	r20, r20
 9d6:	55 1f       	adc	r21, r21
 9d8:	0a 94       	dec	r0
 9da:	e2 f7       	brpl	.-8      	; 0x9d4 <__stack+0x175>
 9dc:	24 2f       	mov	r18, r20
 9de:	20 95       	com	r18
 9e0:	23 23       	and	r18, r19
 9e2:	20 a3       	std	Z+32, r18	; 0x20
 9e4:	ef ec       	ldi	r30, 0xCF	; 207
 9e6:	f7 e0       	ldi	r31, 0x07	; 7
 9e8:	31 97       	sbiw	r30, 0x01	; 1
 9ea:	f1 f7       	brne	.-4      	; 0x9e8 <__stack+0x189>
 9ec:	00 c0       	rjmp	.+0      	; 0x9ee <__stack+0x18f>
 9ee:	00 00       	nop
 9f0:	ee 81       	ldd	r30, Y+6	; 0x06
 9f2:	f0 e0       	ldi	r31, 0x00	; 0
 9f4:	30 a1       	ldd	r19, Z+32	; 0x20
 9f6:	ac 01       	movw	r20, r24
 9f8:	08 84       	ldd	r0, Y+8	; 0x08
 9fa:	02 c0       	rjmp	.+4      	; 0xa00 <__stack+0x1a1>
 9fc:	44 0f       	add	r20, r20
 9fe:	55 1f       	adc	r21, r21
 a00:	0a 94       	dec	r0
 a02:	e2 f7       	brpl	.-8      	; 0x9fc <__stack+0x19d>
 a04:	24 2f       	mov	r18, r20
 a06:	20 95       	com	r18
 a08:	23 23       	and	r18, r19
 a0a:	20 a3       	std	Z+32, r18	; 0x20
 a0c:	ef ec       	ldi	r30, 0xCF	; 207
 a0e:	f7 e0       	ldi	r31, 0x07	; 7
 a10:	31 97       	sbiw	r30, 0x01	; 1
 a12:	f1 f7       	brne	.-4      	; 0xa10 <__stack+0x1b1>
 a14:	00 c0       	rjmp	.+0      	; 0xa16 <__stack+0x1b7>
 a16:	00 00       	nop
 a18:	e9 85       	ldd	r30, Y+9	; 0x09
 a1a:	f0 e0       	ldi	r31, 0x00	; 0
 a1c:	40 a1       	ldd	r20, Z+32	; 0x20
 a1e:	9c 01       	movw	r18, r24
 a20:	0b 84       	ldd	r0, Y+11	; 0x0b
 a22:	02 c0       	rjmp	.+4      	; 0xa28 <__stack+0x1c9>
 a24:	22 0f       	add	r18, r18
 a26:	33 1f       	adc	r19, r19
 a28:	0a 94       	dec	r0
 a2a:	e2 f7       	brpl	.-8      	; 0xa24 <__stack+0x1c5>
 a2c:	24 2b       	or	r18, r20
 a2e:	20 a3       	std	Z+32, r18	; 0x20
 a30:	ec 85       	ldd	r30, Y+12	; 0x0c
 a32:	f0 e0       	ldi	r31, 0x00	; 0
 a34:	40 a1       	ldd	r20, Z+32	; 0x20
 a36:	9c 01       	movw	r18, r24
 a38:	0e 84       	ldd	r0, Y+14	; 0x0e
 a3a:	02 c0       	rjmp	.+4      	; 0xa40 <__stack+0x1e1>
 a3c:	22 0f       	add	r18, r18
 a3e:	33 1f       	adc	r19, r19
 a40:	0a 94       	dec	r0
 a42:	e2 f7       	brpl	.-8      	; 0xa3c <__stack+0x1dd>
 a44:	24 2b       	or	r18, r20
 a46:	20 a3       	std	Z+32, r18	; 0x20
 a48:	ef 85       	ldd	r30, Y+15	; 0x0f
 a4a:	f0 e0       	ldi	r31, 0x00	; 0
 a4c:	30 a1       	ldd	r19, Z+32	; 0x20
 a4e:	ac 01       	movw	r20, r24
 a50:	09 88       	ldd	r0, Y+17	; 0x11
 a52:	02 c0       	rjmp	.+4      	; 0xa58 <__stack+0x1f9>
 a54:	44 0f       	add	r20, r20
 a56:	55 1f       	adc	r21, r21
 a58:	0a 94       	dec	r0
 a5a:	e2 f7       	brpl	.-8      	; 0xa54 <__stack+0x1f5>
 a5c:	24 2f       	mov	r18, r20
 a5e:	20 95       	com	r18
 a60:	23 23       	and	r18, r19
 a62:	20 a3       	std	Z+32, r18	; 0x20
 a64:	ea 89       	ldd	r30, Y+18	; 0x12
 a66:	f0 e0       	ldi	r31, 0x00	; 0
 a68:	30 a1       	ldd	r19, Z+32	; 0x20
 a6a:	ac 01       	movw	r20, r24
 a6c:	0c 88       	ldd	r0, Y+20	; 0x14
 a6e:	02 c0       	rjmp	.+4      	; 0xa74 <__stack+0x215>
 a70:	44 0f       	add	r20, r20
 a72:	55 1f       	adc	r21, r21
 a74:	0a 94       	dec	r0
 a76:	e2 f7       	brpl	.-8      	; 0xa70 <__stack+0x211>
 a78:	24 2f       	mov	r18, r20
 a7a:	20 95       	com	r18
 a7c:	23 23       	and	r18, r19
 a7e:	20 a3       	std	Z+32, r18	; 0x20
 a80:	ee 81       	ldd	r30, Y+6	; 0x06
 a82:	f0 e0       	ldi	r31, 0x00	; 0
 a84:	40 a1       	ldd	r20, Z+32	; 0x20
 a86:	9c 01       	movw	r18, r24
 a88:	08 84       	ldd	r0, Y+8	; 0x08
 a8a:	02 c0       	rjmp	.+4      	; 0xa90 <__stack+0x231>
 a8c:	22 0f       	add	r18, r18
 a8e:	33 1f       	adc	r19, r19
 a90:	0a 94       	dec	r0
 a92:	e2 f7       	brpl	.-8      	; 0xa8c <__stack+0x22d>
 a94:	24 2b       	or	r18, r20
 a96:	20 a3       	std	Z+32, r18	; 0x20
 a98:	e8 81       	ld	r30, Y
 a9a:	f0 e0       	ldi	r31, 0x00	; 0
 a9c:	30 a1       	ldd	r19, Z+32	; 0x20
 a9e:	ac 01       	movw	r20, r24
 aa0:	0a 80       	ldd	r0, Y+2	; 0x02
 aa2:	02 c0       	rjmp	.+4      	; 0xaa8 <__stack+0x249>
 aa4:	44 0f       	add	r20, r20
 aa6:	55 1f       	adc	r21, r21
 aa8:	0a 94       	dec	r0
 aaa:	e2 f7       	brpl	.-8      	; 0xaa4 <__stack+0x245>
 aac:	24 2f       	mov	r18, r20
 aae:	20 95       	com	r18
 ab0:	23 23       	and	r18, r19
 ab2:	20 a3       	std	Z+32, r18	; 0x20
 ab4:	eb 81       	ldd	r30, Y+3	; 0x03
 ab6:	f0 e0       	ldi	r31, 0x00	; 0
 ab8:	30 a1       	ldd	r19, Z+32	; 0x20
 aba:	ac 01       	movw	r20, r24
 abc:	0d 80       	ldd	r0, Y+5	; 0x05
 abe:	02 c0       	rjmp	.+4      	; 0xac4 <__stack+0x265>
 ac0:	44 0f       	add	r20, r20
 ac2:	55 1f       	adc	r21, r21
 ac4:	0a 94       	dec	r0
 ac6:	e2 f7       	brpl	.-8      	; 0xac0 <__stack+0x261>
 ac8:	24 2f       	mov	r18, r20
 aca:	20 95       	com	r18
 acc:	23 23       	and	r18, r19
 ace:	20 a3       	std	Z+32, r18	; 0x20
 ad0:	ef ec       	ldi	r30, 0xCF	; 207
 ad2:	f7 e0       	ldi	r31, 0x07	; 7
 ad4:	31 97       	sbiw	r30, 0x01	; 1
 ad6:	f1 f7       	brne	.-4      	; 0xad4 <__stack+0x275>
 ad8:	00 c0       	rjmp	.+0      	; 0xada <__stack+0x27b>
 ada:	00 00       	nop
 adc:	ee 81       	ldd	r30, Y+6	; 0x06
 ade:	f0 e0       	ldi	r31, 0x00	; 0
 ae0:	30 a1       	ldd	r19, Z+32	; 0x20
 ae2:	ac 01       	movw	r20, r24
 ae4:	08 84       	ldd	r0, Y+8	; 0x08
 ae6:	02 c0       	rjmp	.+4      	; 0xaec <__stack+0x28d>
 ae8:	44 0f       	add	r20, r20
 aea:	55 1f       	adc	r21, r21
 aec:	0a 94       	dec	r0
 aee:	e2 f7       	brpl	.-8      	; 0xae8 <__stack+0x289>
 af0:	24 2f       	mov	r18, r20
 af2:	20 95       	com	r18
 af4:	23 23       	and	r18, r19
 af6:	20 a3       	std	Z+32, r18	; 0x20
 af8:	ef ec       	ldi	r30, 0xCF	; 207
 afa:	f7 e0       	ldi	r31, 0x07	; 7
 afc:	31 97       	sbiw	r30, 0x01	; 1
 afe:	f1 f7       	brne	.-4      	; 0xafc <__stack+0x29d>
 b00:	00 c0       	rjmp	.+0      	; 0xb02 <__stack+0x2a3>
 b02:	00 00       	nop
 b04:	e9 85       	ldd	r30, Y+9	; 0x09
 b06:	f0 e0       	ldi	r31, 0x00	; 0
 b08:	30 a1       	ldd	r19, Z+32	; 0x20
 b0a:	ac 01       	movw	r20, r24
 b0c:	0b 84       	ldd	r0, Y+11	; 0x0b
 b0e:	02 c0       	rjmp	.+4      	; 0xb14 <__stack+0x2b5>
 b10:	44 0f       	add	r20, r20
 b12:	55 1f       	adc	r21, r21
 b14:	0a 94       	dec	r0
 b16:	e2 f7       	brpl	.-8      	; 0xb10 <__stack+0x2b1>
 b18:	24 2f       	mov	r18, r20
 b1a:	20 95       	com	r18
 b1c:	23 23       	and	r18, r19
 b1e:	20 a3       	std	Z+32, r18	; 0x20
 b20:	ec 85       	ldd	r30, Y+12	; 0x0c
 b22:	f0 e0       	ldi	r31, 0x00	; 0
 b24:	40 a1       	ldd	r20, Z+32	; 0x20
 b26:	9c 01       	movw	r18, r24
 b28:	0e 84       	ldd	r0, Y+14	; 0x0e
 b2a:	02 c0       	rjmp	.+4      	; 0xb30 <__stack+0x2d1>
 b2c:	22 0f       	add	r18, r18
 b2e:	33 1f       	adc	r19, r19
 b30:	0a 94       	dec	r0
 b32:	e2 f7       	brpl	.-8      	; 0xb2c <__stack+0x2cd>
 b34:	24 2b       	or	r18, r20
 b36:	20 a3       	std	Z+32, r18	; 0x20
 b38:	ef 85       	ldd	r30, Y+15	; 0x0f
 b3a:	f0 e0       	ldi	r31, 0x00	; 0
 b3c:	30 a1       	ldd	r19, Z+32	; 0x20
 b3e:	ac 01       	movw	r20, r24
 b40:	09 88       	ldd	r0, Y+17	; 0x11
 b42:	02 c0       	rjmp	.+4      	; 0xb48 <__stack+0x2e9>
 b44:	44 0f       	add	r20, r20
 b46:	55 1f       	adc	r21, r21
 b48:	0a 94       	dec	r0
 b4a:	e2 f7       	brpl	.-8      	; 0xb44 <__stack+0x2e5>
 b4c:	24 2f       	mov	r18, r20
 b4e:	20 95       	com	r18
 b50:	23 23       	and	r18, r19
 b52:	20 a3       	std	Z+32, r18	; 0x20
 b54:	ea 89       	ldd	r30, Y+18	; 0x12
 b56:	f0 e0       	ldi	r31, 0x00	; 0
 b58:	30 a1       	ldd	r19, Z+32	; 0x20
 b5a:	ac 01       	movw	r20, r24
 b5c:	0c 88       	ldd	r0, Y+20	; 0x14
 b5e:	02 c0       	rjmp	.+4      	; 0xb64 <__stack+0x305>
 b60:	44 0f       	add	r20, r20
 b62:	55 1f       	adc	r21, r21
 b64:	0a 94       	dec	r0
 b66:	e2 f7       	brpl	.-8      	; 0xb60 <__stack+0x301>
 b68:	24 2f       	mov	r18, r20
 b6a:	20 95       	com	r18
 b6c:	23 23       	and	r18, r19
 b6e:	20 a3       	std	Z+32, r18	; 0x20
 b70:	ee 81       	ldd	r30, Y+6	; 0x06
 b72:	f0 e0       	ldi	r31, 0x00	; 0
 b74:	40 a1       	ldd	r20, Z+32	; 0x20
 b76:	9c 01       	movw	r18, r24
 b78:	08 84       	ldd	r0, Y+8	; 0x08
 b7a:	02 c0       	rjmp	.+4      	; 0xb80 <__stack+0x321>
 b7c:	22 0f       	add	r18, r18
 b7e:	33 1f       	adc	r19, r19
 b80:	0a 94       	dec	r0
 b82:	e2 f7       	brpl	.-8      	; 0xb7c <__stack+0x31d>
 b84:	24 2b       	or	r18, r20
 b86:	20 a3       	std	Z+32, r18	; 0x20
 b88:	e8 81       	ld	r30, Y
 b8a:	f0 e0       	ldi	r31, 0x00	; 0
 b8c:	30 a1       	ldd	r19, Z+32	; 0x20
 b8e:	ac 01       	movw	r20, r24
 b90:	0a 80       	ldd	r0, Y+2	; 0x02
 b92:	02 c0       	rjmp	.+4      	; 0xb98 <__stack+0x339>
 b94:	44 0f       	add	r20, r20
 b96:	55 1f       	adc	r21, r21
 b98:	0a 94       	dec	r0
 b9a:	e2 f7       	brpl	.-8      	; 0xb94 <__stack+0x335>
 b9c:	24 2f       	mov	r18, r20
 b9e:	20 95       	com	r18
 ba0:	23 23       	and	r18, r19
 ba2:	20 a3       	std	Z+32, r18	; 0x20
 ba4:	eb 81       	ldd	r30, Y+3	; 0x03
 ba6:	f0 e0       	ldi	r31, 0x00	; 0
 ba8:	30 a1       	ldd	r19, Z+32	; 0x20
 baa:	ac 01       	movw	r20, r24
 bac:	0d 80       	ldd	r0, Y+5	; 0x05
 bae:	02 c0       	rjmp	.+4      	; 0xbb4 <__stack+0x355>
 bb0:	44 0f       	add	r20, r20
 bb2:	55 1f       	adc	r21, r21
 bb4:	0a 94       	dec	r0
 bb6:	e2 f7       	brpl	.-8      	; 0xbb0 <__stack+0x351>
 bb8:	24 2f       	mov	r18, r20
 bba:	20 95       	com	r18
 bbc:	23 23       	and	r18, r19
 bbe:	20 a3       	std	Z+32, r18	; 0x20
 bc0:	ef ec       	ldi	r30, 0xCF	; 207
 bc2:	f7 e0       	ldi	r31, 0x07	; 7
 bc4:	31 97       	sbiw	r30, 0x01	; 1
 bc6:	f1 f7       	brne	.-4      	; 0xbc4 <__stack+0x365>
 bc8:	00 c0       	rjmp	.+0      	; 0xbca <__stack+0x36b>
 bca:	00 00       	nop
 bcc:	ee 81       	ldd	r30, Y+6	; 0x06
 bce:	f0 e0       	ldi	r31, 0x00	; 0
 bd0:	20 a1       	ldd	r18, Z+32	; 0x20
 bd2:	08 84       	ldd	r0, Y+8	; 0x08
 bd4:	02 c0       	rjmp	.+4      	; 0xbda <__stack+0x37b>
 bd6:	88 0f       	add	r24, r24
 bd8:	99 1f       	adc	r25, r25
 bda:	0a 94       	dec	r0
 bdc:	e2 f7       	brpl	.-8      	; 0xbd6 <__stack+0x377>
 bde:	80 95       	com	r24
 be0:	82 23       	and	r24, r18
 be2:	80 a3       	std	Z+32, r24	; 0x20
 be4:	8f ec       	ldi	r24, 0xCF	; 207
 be6:	97 e0       	ldi	r25, 0x07	; 7
 be8:	01 97       	sbiw	r24, 0x01	; 1
 bea:	f1 f7       	brne	.-4      	; 0xbe8 <__stack+0x389>
 bec:	00 c0       	rjmp	.+0      	; 0xbee <__stack+0x38f>
 bee:	00 00       	nop
 bf0:	68 e2       	ldi	r22, 0x28	; 40
 bf2:	ce 01       	movw	r24, r28
 bf4:	0e 94 6d 02 	call	0x4da	; 0x4da <_ZN13Character_LCD11SendCommandEh>
 bf8:	6c e0       	ldi	r22, 0x0C	; 12
 bfa:	ce 01       	movw	r24, r28
 bfc:	0e 94 6d 02 	call	0x4da	; 0x4da <_ZN13Character_LCD11SendCommandEh>
 c00:	ce 01       	movw	r24, r28
 c02:	0e 94 e7 03 	call	0x7ce	; 0x7ce <_ZN13Character_LCD3ClrEv>
 c06:	df 91       	pop	r29
 c08:	cf 91       	pop	r28
 c0a:	08 95       	ret

00000c0c <_ZN13Character_LCD6NumberEhmh>:
 c0c:	2f 92       	push	r2
 c0e:	3f 92       	push	r3
 c10:	4f 92       	push	r4
 c12:	5f 92       	push	r5
 c14:	6f 92       	push	r6
 c16:	7f 92       	push	r7
 c18:	8f 92       	push	r8
 c1a:	9f 92       	push	r9
 c1c:	af 92       	push	r10
 c1e:	bf 92       	push	r11
 c20:	cf 92       	push	r12
 c22:	df 92       	push	r13
 c24:	ef 92       	push	r14
 c26:	ff 92       	push	r15
 c28:	0f 93       	push	r16
 c2a:	1f 93       	push	r17
 c2c:	cf 93       	push	r28
 c2e:	df 93       	push	r29
 c30:	cd b7       	in	r28, 0x3d	; 61
 c32:	de b7       	in	r29, 0x3e	; 62
 c34:	2a 97       	sbiw	r28, 0x0a	; 10
 c36:	0f b6       	in	r0, 0x3f	; 63
 c38:	f8 94       	cli
 c3a:	de bf       	out	0x3e, r29	; 62
 c3c:	0f be       	out	0x3f, r0	; 63
 c3e:	cd bf       	out	0x3d, r28	; 61
 c40:	5c 01       	movw	r10, r24
 c42:	66 2e       	mov	r6, r22
 c44:	69 01       	movw	r12, r18
 c46:	7a 01       	movw	r14, r20
 c48:	22 e0       	ldi	r18, 0x02	; 2
 c4a:	62 13       	cpse	r22, r18
 c4c:	26 c0       	rjmp	.+76     	; 0xc9a <_ZN13Character_LCD6NumberEhmh+0x8e>
 c4e:	00 23       	and	r16, r16
 c50:	09 f4       	brne	.+2      	; 0xc54 <_ZN13Character_LCD6NumberEhmh+0x48>
 c52:	76 c0       	rjmp	.+236    	; 0xd40 <_ZN13Character_LCD6NumberEhmh+0x134>
 c54:	88 24       	eor	r8, r8
 c56:	83 94       	inc	r8
 c58:	91 2c       	mov	r9, r1
 c5a:	11 e0       	ldi	r17, 0x01	; 1
 c5c:	71 2c       	mov	r7, r1
 c5e:	8f ef       	ldi	r24, 0xFF	; 255
 c60:	80 0f       	add	r24, r16
 c62:	f4 01       	movw	r30, r8
 c64:	02 c0       	rjmp	.+4      	; 0xc6a <_ZN13Character_LCD6NumberEhmh+0x5e>
 c66:	ee 0f       	add	r30, r30
 c68:	ff 1f       	adc	r31, r31
 c6a:	8a 95       	dec	r24
 c6c:	e2 f7       	brpl	.-8      	; 0xc66 <_ZN13Character_LCD6NumberEhmh+0x5a>
 c6e:	cf 01       	movw	r24, r30
 c70:	09 2e       	mov	r0, r25
 c72:	00 0c       	add	r0, r0
 c74:	aa 0b       	sbc	r26, r26
 c76:	bb 0b       	sbc	r27, r27
 c78:	8c 21       	and	r24, r12
 c7a:	9d 21       	and	r25, r13
 c7c:	ae 21       	and	r26, r14
 c7e:	bf 21       	and	r27, r15
 c80:	61 2f       	mov	r22, r17
 c82:	89 2b       	or	r24, r25
 c84:	8a 2b       	or	r24, r26
 c86:	8b 2b       	or	r24, r27
 c88:	09 f4       	brne	.+2      	; 0xc8c <_ZN13Character_LCD6NumberEhmh+0x80>
 c8a:	67 2d       	mov	r22, r7
 c8c:	60 5d       	subi	r22, 0xD0	; 208
 c8e:	c5 01       	movw	r24, r10
 c90:	0e 94 9e 00 	call	0x13c	; 0x13c <_ZN13Character_LCD8SendCharEh>
 c94:	01 50       	subi	r16, 0x01	; 1
 c96:	19 f7       	brne	.-58     	; 0xc5e <_ZN13Character_LCD6NumberEhmh+0x52>
 c98:	53 c0       	rjmp	.+166    	; 0xd40 <_ZN13Character_LCD6NumberEhmh+0x134>
 c9a:	c1 14       	cp	r12, r1
 c9c:	d1 04       	cpc	r13, r1
 c9e:	e1 04       	cpc	r14, r1
 ca0:	f1 04       	cpc	r15, r1
 ca2:	19 f0       	breq	.+6      	; 0xcaa <_ZN13Character_LCD6NumberEhmh+0x9e>
 ca4:	01 11       	cpse	r16, r1
 ca6:	11 c0       	rjmp	.+34     	; 0xcca <_ZN13Character_LCD6NumberEhmh+0xbe>
 ca8:	4b c0       	rjmp	.+150    	; 0xd40 <_ZN13Character_LCD6NumberEhmh+0x134>
 caa:	00 23       	and	r16, r16
 cac:	09 f4       	brne	.+2      	; 0xcb0 <_ZN13Character_LCD6NumberEhmh+0xa4>
 cae:	48 c0       	rjmp	.+144    	; 0xd40 <_ZN13Character_LCD6NumberEhmh+0x134>
 cb0:	10 e0       	ldi	r17, 0x00	; 0
 cb2:	03 c0       	rjmp	.+6      	; 0xcba <_ZN13Character_LCD6NumberEhmh+0xae>
 cb4:	1a 30       	cpi	r17, 0x0A	; 10
 cb6:	09 f4       	brne	.+2      	; 0xcba <_ZN13Character_LCD6NumberEhmh+0xae>
 cb8:	43 c0       	rjmp	.+134    	; 0xd40 <_ZN13Character_LCD6NumberEhmh+0x134>
 cba:	60 e3       	ldi	r22, 0x30	; 48
 cbc:	c5 01       	movw	r24, r10
 cbe:	0e 94 9e 00 	call	0x13c	; 0x13c <_ZN13Character_LCD8SendCharEh>
 cc2:	1f 5f       	subi	r17, 0xFF	; 255
 cc4:	01 13       	cpse	r16, r17
 cc6:	f6 cf       	rjmp	.-20     	; 0xcb4 <_ZN13Character_LCD6NumberEhmh+0xa8>
 cc8:	3b c0       	rjmp	.+118    	; 0xd40 <_ZN13Character_LCD6NumberEhmh+0x134>
 cca:	9e 01       	movw	r18, r28
 ccc:	2f 5f       	subi	r18, 0xFF	; 255
 cce:	3f 4f       	sbci	r19, 0xFF	; 255
 cd0:	49 01       	movw	r8, r18
 cd2:	10 e0       	ldi	r17, 0x00	; 0
 cd4:	26 2e       	mov	r2, r22
 cd6:	31 2c       	mov	r3, r1
 cd8:	41 2c       	mov	r4, r1
 cda:	51 2c       	mov	r5, r1
 cdc:	c1 14       	cp	r12, r1
 cde:	d1 04       	cpc	r13, r1
 ce0:	e1 04       	cpc	r14, r1
 ce2:	f1 04       	cpc	r15, r1
 ce4:	89 f0       	breq	.+34     	; 0xd08 <_ZN13Character_LCD6NumberEhmh+0xfc>
 ce6:	7c 2c       	mov	r7, r12
 ce8:	c7 01       	movw	r24, r14
 cea:	b6 01       	movw	r22, r12
 cec:	a2 01       	movw	r20, r4
 cee:	91 01       	movw	r18, r2
 cf0:	0e 94 c0 07 	call	0xf80	; 0xf80 <__udivmodsi4>
 cf4:	c2 2e       	mov	r12, r18
 cf6:	d3 2e       	mov	r13, r19
 cf8:	e4 2e       	mov	r14, r20
 cfa:	f5 2e       	mov	r15, r21
 cfc:	62 9e       	mul	r6, r18
 cfe:	70 18       	sub	r7, r0
 d00:	11 24       	eor	r1, r1
 d02:	f4 01       	movw	r30, r8
 d04:	70 82       	st	Z, r7
 d06:	08 c0       	rjmp	.+16     	; 0xd18 <_ZN13Character_LCD6NumberEhmh+0x10c>
 d08:	0b 30       	cpi	r16, 0x0B	; 11
 d0a:	20 f0       	brcs	.+8      	; 0xd14 <_ZN13Character_LCD6NumberEhmh+0x108>
 d0c:	11 23       	and	r17, r17
 d0e:	c1 f0       	breq	.+48     	; 0xd40 <_ZN13Character_LCD6NumberEhmh+0x134>
 d10:	01 2f       	mov	r16, r17
 d12:	08 c0       	rjmp	.+16     	; 0xd24 <_ZN13Character_LCD6NumberEhmh+0x118>
 d14:	f4 01       	movw	r30, r8
 d16:	10 82       	st	Z, r1
 d18:	1f 5f       	subi	r17, 0xFF	; 255
 d1a:	ff ef       	ldi	r31, 0xFF	; 255
 d1c:	8f 1a       	sub	r8, r31
 d1e:	9f 0a       	sbc	r9, r31
 d20:	01 13       	cpse	r16, r17
 d22:	dc cf       	rjmp	.-72     	; 0xcdc <_ZN13Character_LCD6NumberEhmh+0xd0>
 d24:	fe 01       	movw	r30, r28
 d26:	e0 0f       	add	r30, r16
 d28:	f1 1d       	adc	r31, r1
 d2a:	60 81       	ld	r22, Z
 d2c:	6a 30       	cpi	r22, 0x0A	; 10
 d2e:	10 f0       	brcs	.+4      	; 0xd34 <_ZN13Character_LCD6NumberEhmh+0x128>
 d30:	69 5c       	subi	r22, 0xC9	; 201
 d32:	01 c0       	rjmp	.+2      	; 0xd36 <_ZN13Character_LCD6NumberEhmh+0x12a>
 d34:	60 5d       	subi	r22, 0xD0	; 208
 d36:	c5 01       	movw	r24, r10
 d38:	0e 94 9e 00 	call	0x13c	; 0x13c <_ZN13Character_LCD8SendCharEh>
 d3c:	01 50       	subi	r16, 0x01	; 1
 d3e:	91 f7       	brne	.-28     	; 0xd24 <_ZN13Character_LCD6NumberEhmh+0x118>
 d40:	2a 96       	adiw	r28, 0x0a	; 10
 d42:	0f b6       	in	r0, 0x3f	; 63
 d44:	f8 94       	cli
 d46:	de bf       	out	0x3e, r29	; 62
 d48:	0f be       	out	0x3f, r0	; 63
 d4a:	cd bf       	out	0x3d, r28	; 61
 d4c:	df 91       	pop	r29
 d4e:	cf 91       	pop	r28
 d50:	1f 91       	pop	r17
 d52:	0f 91       	pop	r16
 d54:	ff 90       	pop	r15
 d56:	ef 90       	pop	r14
 d58:	df 90       	pop	r13
 d5a:	cf 90       	pop	r12
 d5c:	bf 90       	pop	r11
 d5e:	af 90       	pop	r10
 d60:	9f 90       	pop	r9
 d62:	8f 90       	pop	r8
 d64:	7f 90       	pop	r7
 d66:	6f 90       	pop	r6
 d68:	5f 90       	pop	r5
 d6a:	4f 90       	pop	r4
 d6c:	3f 90       	pop	r3
 d6e:	2f 90       	pop	r2
 d70:	08 95       	ret

00000d72 <_ZN13Character_LCD9INTNumberEf>:
 d72:	0f 93       	push	r16
 d74:	cf 93       	push	r28
 d76:	df 93       	push	r29
 d78:	ec 01       	movw	r28, r24
 d7a:	cb 01       	movw	r24, r22
 d7c:	ba 01       	movw	r22, r20
 d7e:	0e 94 2b 07 	call	0xe56	; 0xe56 <__fixunssfsi>
 d82:	9b 01       	movw	r18, r22
 d84:	ac 01       	movw	r20, r24
 d86:	0f ef       	ldi	r16, 0xFF	; 255
 d88:	6a e0       	ldi	r22, 0x0A	; 10
 d8a:	ce 01       	movw	r24, r28
 d8c:	0e 94 06 06 	call	0xc0c	; 0xc0c <_ZN13Character_LCD6NumberEhmh>
 d90:	df 91       	pop	r29
 d92:	cf 91       	pop	r28
 d94:	0f 91       	pop	r16
 d96:	08 95       	ret

00000d98 <main>:
#define Prescaler 1
#define TWBR_val ((((F_CPU / F_SCL) / Prescaler) - 16 ) / 2)

void i2c_init(void)
{
	TWBR = (uint8_t)TWBR_val;
 d98:	80 e2       	ldi	r24, 0x20	; 32
 d9a:	80 b9       	out	0x00, r24	; 0
#define SLAVE_3_ADRR 0x30
#define SLAVE_4_ADRR 0x40
int main(void)
{
	i2c_init();
	DDRA = 0;
 d9c:	1a ba       	out	0x1a, r1	; 26
	DDRB = 0;
 d9e:	17 ba       	out	0x17, r1	; 23


	public:
	Character_LCD ();
	
	void SetRSPin(uint8_t ADD_PORT , uint8_t ADD_DDR , uint8_t Bit) { RS_PORT = ADD_PORT ; RS_DDR = ADD_DDR ; RS_Bit = Bit ; }
 da0:	ec e6       	ldi	r30, 0x6C	; 108
 da2:	f0 e0       	ldi	r31, 0x00	; 0
 da4:	92 e1       	ldi	r25, 0x12	; 18
 da6:	90 83       	st	Z, r25
 da8:	81 e1       	ldi	r24, 0x11	; 17
 daa:	81 83       	std	Z+1, r24	; 0x01
 dac:	12 82       	std	Z+2, r1	; 0x02
	void SetRWPin(uint8_t ADD_PORT , uint8_t ADD_DDR , uint8_t Bit) { RW_PORT = ADD_PORT ; RW_DDR = ADD_DDR ; RW_Bit = Bit ; }
 dae:	93 83       	std	Z+3, r25	; 0x03
 db0:	84 83       	std	Z+4, r24	; 0x04
 db2:	21 e0       	ldi	r18, 0x01	; 1
 db4:	25 83       	std	Z+5, r18	; 0x05
	void SetEPin(uint8_t ADD_PORT , uint8_t ADD_DDR , uint8_t Bit) { E_PORT = ADD_PORT ; E_DDR = ADD_DDR ; E_Bit = Bit ; }
 db6:	96 83       	std	Z+6, r25	; 0x06
 db8:	87 83       	std	Z+7, r24	; 0x07
 dba:	22 e0       	ldi	r18, 0x02	; 2
 dbc:	20 87       	std	Z+8, r18	; 0x08
	void SetD4Pin(uint8_t ADD_PORT , uint8_t ADD_DDR , uint8_t Bit) { D4_PORT = ADD_PORT ; D4_DDR = ADD_DDR ; D4_Bit = Bit ; }
 dbe:	91 87       	std	Z+9, r25	; 0x09
 dc0:	82 87       	std	Z+10, r24	; 0x0a
 dc2:	23 e0       	ldi	r18, 0x03	; 3
 dc4:	23 87       	std	Z+11, r18	; 0x0b
	void SetD5Pin(uint8_t ADD_PORT , uint8_t ADD_DDR , uint8_t Bit) { D5_PORT = ADD_PORT ; D5_DDR = ADD_DDR ; D5_Bit = Bit ; }
 dc6:	94 87       	std	Z+12, r25	; 0x0c
 dc8:	85 87       	std	Z+13, r24	; 0x0d
 dca:	24 e0       	ldi	r18, 0x04	; 4
 dcc:	26 87       	std	Z+14, r18	; 0x0e
	void SetD6Pin(uint8_t ADD_PORT , uint8_t ADD_DDR , uint8_t Bit) { D6_PORT = ADD_PORT ; D6_DDR = ADD_DDR ; D6_Bit = Bit ; }
 dce:	97 87       	std	Z+15, r25	; 0x0f
 dd0:	80 8b       	std	Z+16, r24	; 0x10
 dd2:	25 e0       	ldi	r18, 0x05	; 5
 dd4:	21 8b       	std	Z+17, r18	; 0x11
	void SetD7Pin(uint8_t ADD_PORT , uint8_t ADD_DDR , uint8_t Bit) { D7_PORT = ADD_PORT ; D7_DDR = ADD_DDR ; D7_Bit = Bit ; }
 dd6:	92 8b       	std	Z+18, r25	; 0x12
 dd8:	83 8b       	std	Z+19, r24	; 0x13
 dda:	86 e0       	ldi	r24, 0x06	; 6
 ddc:	84 8b       	std	Z+20, r24	; 0x14
			LCD1.SetEPin  (ADD(PORTD),ADD(DDRD),2);
			LCD1.SetD4Pin (ADD(PORTD),ADD(DDRD),3);
			LCD1.SetD5Pin (ADD(PORTD),ADD(DDRD),4);
			LCD1.SetD6Pin (ADD(PORTD),ADD(DDRD),5);
			LCD1.SetD7Pin (ADD(PORTD),ADD(DDRD),6);
			LCD1.Init(16,2);
 dde:	42 e0       	ldi	r20, 0x02	; 2
 de0:	60 e1       	ldi	r22, 0x10	; 16
 de2:	cf 01       	movw	r24, r30
 de4:	0e 94 f1 03 	call	0x7e2	; 0x7e2 <_ZN13Character_LCD4InitEhh>
}

void i2c_stop(void)
{
	// transmit STOP condition
	TWCR = (1<<TWINT) | (1<<TWEN) | (1<<TWSTO);
 de8:	c4 e9       	ldi	r28, 0x94	; 148
    while (1) 
    {
		
		//LCD1.Clr();
		//LCD1.Printf("test",0,0);
		while((PINB & 0x01) ==1){
 dea:	b0 9b       	sbis	0x16, 0	; 22
 dec:	fe cf       	rjmp	.-4      	; 0xdea <main+0x52>
		LCD1.Clr();
 dee:	8c e6       	ldi	r24, 0x6C	; 108
 df0:	90 e0       	ldi	r25, 0x00	; 0
 df2:	0e 94 e7 03 	call	0x7ce	; 0x7ce <_ZN13Character_LCD3ClrEv>
		
		

		LCD1.SendString("PORT is : ");
 df6:	60 e6       	ldi	r22, 0x60	; 96
 df8:	70 e0       	ldi	r23, 0x00	; 0
 dfa:	8c e6       	ldi	r24, 0x6C	; 108
 dfc:	90 e0       	ldi	r25, 0x00	; 0
 dfe:	0e 94 58 02 	call	0x4b0	; 0x4b0 <_ZN13Character_LCD10SendStringEPc>
		LCD1.INTNumber((int)PINA);	
 e02:	69 b3       	in	r22, 0x19	; 25
 e04:	70 e0       	ldi	r23, 0x00	; 0
 e06:	80 e0       	ldi	r24, 0x00	; 0
 e08:	90 e0       	ldi	r25, 0x00	; 0
 e0a:	0e 94 5c 07 	call	0xeb8	; 0xeb8 <__floatsisf>
 e0e:	ab 01       	movw	r20, r22
 e10:	bc 01       	movw	r22, r24
 e12:	8c e6       	ldi	r24, 0x6C	; 108
 e14:	90 e0       	ldi	r25, 0x00	; 0
 e16:	0e 94 b9 06 	call	0xd72	; 0xd72 <_ZN13Character_LCD9INTNumberEf>
		
		
		if ((PINB & 0b00000010) == 0b00000000)
 e1a:	b1 99       	sbic	0x16, 1	; 22
 e1c:	04 c0       	rjmp	.+8      	; 0xe26 <main+0x8e>
		{
		i2c_start(SLAVE_1_ADRR <<1 | I2C_WRITE);
 e1e:	80 e2       	ldi	r24, 0x20	; 32
 e20:	0e 94 55 00 	call	0xaa	; 0xaa <_Z9i2c_starth>
 e24:	05 c0       	rjmp	.+10     	; 0xe30 <main+0x98>

		}
		else if ((PINB & 0b00000010) == 0b00000010)
 e26:	b1 9b       	sbis	0x16, 1	; 22
 e28:	03 c0       	rjmp	.+6      	; 0xe30 <main+0x98>
		{
		i2c_start(SLAVE_2_ADRR <<1 | I2C_WRITE);
 e2a:	80 e4       	ldi	r24, 0x40	; 64
 e2c:	0e 94 55 00 	call	0xaa	; 0xaa <_Z9i2c_starth>
		}

		//i2c_start(0x10);
		i2c_write(PINA);
 e30:	89 b3       	in	r24, 0x19	; 25
 e32:	0e 94 72 00 	call	0xe4	; 0xe4 <_Z9i2c_writeh>
 e36:	c6 bf       	out	0x36, r28	; 54
	#else
		//round up by default
		__ticks_dc = (uint32_t)(ceil(fabs(__tmp)));
	#endif

	__builtin_avr_delay_cycles(__ticks_dc);
 e38:	2f ef       	ldi	r18, 0xFF	; 255
 e3a:	89 e6       	ldi	r24, 0x69	; 105
 e3c:	98 e1       	ldi	r25, 0x18	; 24
 e3e:	21 50       	subi	r18, 0x01	; 1
 e40:	80 40       	sbci	r24, 0x00	; 0
 e42:	90 40       	sbci	r25, 0x00	; 0
 e44:	e1 f7       	brne	.-8      	; 0xe3e <main+0xa6>
 e46:	00 c0       	rjmp	.+0      	; 0xe48 <main+0xb0>
 e48:	00 00       	nop
 e4a:	cf cf       	rjmp	.-98     	; 0xdea <main+0x52>

00000e4c <_GLOBAL__sub_I__Z8i2c_initv>:
#include <util/delay.h>
#include <D:\GitHub\LED-I2C\LED-I2C Lib\i2c_master.c>
#include <D:\GitHub\LCD-Lib-Cplusplus\LIB\CharacterLCD.h>
#include <D:\GitHub\LCD-Lib-Cplusplus\LIB\CharacterLCD.cpp>
char data_received;
Character_LCD LCD1;
 e4c:	8c e6       	ldi	r24, 0x6C	; 108
 e4e:	90 e0       	ldi	r25, 0x00	; 0
 e50:	0e 94 7f 00 	call	0xfe	; 0xfe <_ZN13Character_LCDC1Ev>
 e54:	08 95       	ret

00000e56 <__fixunssfsi>:
 e56:	0e 94 9f 07 	call	0xf3e	; 0xf3e <__fp_splitA>
 e5a:	88 f0       	brcs	.+34     	; 0xe7e <__fixunssfsi+0x28>
 e5c:	9f 57       	subi	r25, 0x7F	; 127
 e5e:	98 f0       	brcs	.+38     	; 0xe86 <__fixunssfsi+0x30>
 e60:	b9 2f       	mov	r27, r25
 e62:	99 27       	eor	r25, r25
 e64:	b7 51       	subi	r27, 0x17	; 23
 e66:	b0 f0       	brcs	.+44     	; 0xe94 <__fixunssfsi+0x3e>
 e68:	e1 f0       	breq	.+56     	; 0xea2 <__fixunssfsi+0x4c>
 e6a:	66 0f       	add	r22, r22
 e6c:	77 1f       	adc	r23, r23
 e6e:	88 1f       	adc	r24, r24
 e70:	99 1f       	adc	r25, r25
 e72:	1a f0       	brmi	.+6      	; 0xe7a <__fixunssfsi+0x24>
 e74:	ba 95       	dec	r27
 e76:	c9 f7       	brne	.-14     	; 0xe6a <__fixunssfsi+0x14>
 e78:	14 c0       	rjmp	.+40     	; 0xea2 <__fixunssfsi+0x4c>
 e7a:	b1 30       	cpi	r27, 0x01	; 1
 e7c:	91 f0       	breq	.+36     	; 0xea2 <__fixunssfsi+0x4c>
 e7e:	0e 94 b9 07 	call	0xf72	; 0xf72 <__fp_zero>
 e82:	b1 e0       	ldi	r27, 0x01	; 1
 e84:	08 95       	ret
 e86:	0c 94 b9 07 	jmp	0xf72	; 0xf72 <__fp_zero>
 e8a:	67 2f       	mov	r22, r23
 e8c:	78 2f       	mov	r23, r24
 e8e:	88 27       	eor	r24, r24
 e90:	b8 5f       	subi	r27, 0xF8	; 248
 e92:	39 f0       	breq	.+14     	; 0xea2 <__fixunssfsi+0x4c>
 e94:	b9 3f       	cpi	r27, 0xF9	; 249
 e96:	cc f3       	brlt	.-14     	; 0xe8a <__fixunssfsi+0x34>
 e98:	86 95       	lsr	r24
 e9a:	77 95       	ror	r23
 e9c:	67 95       	ror	r22
 e9e:	b3 95       	inc	r27
 ea0:	d9 f7       	brne	.-10     	; 0xe98 <__fixunssfsi+0x42>
 ea2:	3e f4       	brtc	.+14     	; 0xeb2 <__fixunssfsi+0x5c>
 ea4:	90 95       	com	r25
 ea6:	80 95       	com	r24
 ea8:	70 95       	com	r23
 eaa:	61 95       	neg	r22
 eac:	7f 4f       	sbci	r23, 0xFF	; 255
 eae:	8f 4f       	sbci	r24, 0xFF	; 255
 eb0:	9f 4f       	sbci	r25, 0xFF	; 255
 eb2:	08 95       	ret

00000eb4 <__floatunsisf>:
 eb4:	e8 94       	clt
 eb6:	09 c0       	rjmp	.+18     	; 0xeca <__floatsisf+0x12>

00000eb8 <__floatsisf>:
 eb8:	97 fb       	bst	r25, 7
 eba:	3e f4       	brtc	.+14     	; 0xeca <__floatsisf+0x12>
 ebc:	90 95       	com	r25
 ebe:	80 95       	com	r24
 ec0:	70 95       	com	r23
 ec2:	61 95       	neg	r22
 ec4:	7f 4f       	sbci	r23, 0xFF	; 255
 ec6:	8f 4f       	sbci	r24, 0xFF	; 255
 ec8:	9f 4f       	sbci	r25, 0xFF	; 255
 eca:	99 23       	and	r25, r25
 ecc:	a9 f0       	breq	.+42     	; 0xef8 <__floatsisf+0x40>
 ece:	f9 2f       	mov	r31, r25
 ed0:	96 e9       	ldi	r25, 0x96	; 150
 ed2:	bb 27       	eor	r27, r27
 ed4:	93 95       	inc	r25
 ed6:	f6 95       	lsr	r31
 ed8:	87 95       	ror	r24
 eda:	77 95       	ror	r23
 edc:	67 95       	ror	r22
 ede:	b7 95       	ror	r27
 ee0:	f1 11       	cpse	r31, r1
 ee2:	f8 cf       	rjmp	.-16     	; 0xed4 <__floatsisf+0x1c>
 ee4:	fa f4       	brpl	.+62     	; 0xf24 <__floatsisf+0x6c>
 ee6:	bb 0f       	add	r27, r27
 ee8:	11 f4       	brne	.+4      	; 0xeee <__floatsisf+0x36>
 eea:	60 ff       	sbrs	r22, 0
 eec:	1b c0       	rjmp	.+54     	; 0xf24 <__floatsisf+0x6c>
 eee:	6f 5f       	subi	r22, 0xFF	; 255
 ef0:	7f 4f       	sbci	r23, 0xFF	; 255
 ef2:	8f 4f       	sbci	r24, 0xFF	; 255
 ef4:	9f 4f       	sbci	r25, 0xFF	; 255
 ef6:	16 c0       	rjmp	.+44     	; 0xf24 <__floatsisf+0x6c>
 ef8:	88 23       	and	r24, r24
 efa:	11 f0       	breq	.+4      	; 0xf00 <__floatsisf+0x48>
 efc:	96 e9       	ldi	r25, 0x96	; 150
 efe:	11 c0       	rjmp	.+34     	; 0xf22 <__floatsisf+0x6a>
 f00:	77 23       	and	r23, r23
 f02:	21 f0       	breq	.+8      	; 0xf0c <__floatsisf+0x54>
 f04:	9e e8       	ldi	r25, 0x8E	; 142
 f06:	87 2f       	mov	r24, r23
 f08:	76 2f       	mov	r23, r22
 f0a:	05 c0       	rjmp	.+10     	; 0xf16 <__floatsisf+0x5e>
 f0c:	66 23       	and	r22, r22
 f0e:	71 f0       	breq	.+28     	; 0xf2c <__floatsisf+0x74>
 f10:	96 e8       	ldi	r25, 0x86	; 134
 f12:	86 2f       	mov	r24, r22
 f14:	70 e0       	ldi	r23, 0x00	; 0
 f16:	60 e0       	ldi	r22, 0x00	; 0
 f18:	2a f0       	brmi	.+10     	; 0xf24 <__floatsisf+0x6c>
 f1a:	9a 95       	dec	r25
 f1c:	66 0f       	add	r22, r22
 f1e:	77 1f       	adc	r23, r23
 f20:	88 1f       	adc	r24, r24
 f22:	da f7       	brpl	.-10     	; 0xf1a <__floatsisf+0x62>
 f24:	88 0f       	add	r24, r24
 f26:	96 95       	lsr	r25
 f28:	87 95       	ror	r24
 f2a:	97 f9       	bld	r25, 7
 f2c:	08 95       	ret

00000f2e <__fp_split3>:
 f2e:	57 fd       	sbrc	r21, 7
 f30:	90 58       	subi	r25, 0x80	; 128
 f32:	44 0f       	add	r20, r20
 f34:	55 1f       	adc	r21, r21
 f36:	59 f0       	breq	.+22     	; 0xf4e <__fp_splitA+0x10>
 f38:	5f 3f       	cpi	r21, 0xFF	; 255
 f3a:	71 f0       	breq	.+28     	; 0xf58 <__fp_splitA+0x1a>
 f3c:	47 95       	ror	r20

00000f3e <__fp_splitA>:
 f3e:	88 0f       	add	r24, r24
 f40:	97 fb       	bst	r25, 7
 f42:	99 1f       	adc	r25, r25
 f44:	61 f0       	breq	.+24     	; 0xf5e <__fp_splitA+0x20>
 f46:	9f 3f       	cpi	r25, 0xFF	; 255
 f48:	79 f0       	breq	.+30     	; 0xf68 <__fp_splitA+0x2a>
 f4a:	87 95       	ror	r24
 f4c:	08 95       	ret
 f4e:	12 16       	cp	r1, r18
 f50:	13 06       	cpc	r1, r19
 f52:	14 06       	cpc	r1, r20
 f54:	55 1f       	adc	r21, r21
 f56:	f2 cf       	rjmp	.-28     	; 0xf3c <__fp_split3+0xe>
 f58:	46 95       	lsr	r20
 f5a:	f1 df       	rcall	.-30     	; 0xf3e <__fp_splitA>
 f5c:	08 c0       	rjmp	.+16     	; 0xf6e <__fp_splitA+0x30>
 f5e:	16 16       	cp	r1, r22
 f60:	17 06       	cpc	r1, r23
 f62:	18 06       	cpc	r1, r24
 f64:	99 1f       	adc	r25, r25
 f66:	f1 cf       	rjmp	.-30     	; 0xf4a <__fp_splitA+0xc>
 f68:	86 95       	lsr	r24
 f6a:	71 05       	cpc	r23, r1
 f6c:	61 05       	cpc	r22, r1
 f6e:	08 94       	sec
 f70:	08 95       	ret

00000f72 <__fp_zero>:
 f72:	e8 94       	clt

00000f74 <__fp_szero>:
 f74:	bb 27       	eor	r27, r27
 f76:	66 27       	eor	r22, r22
 f78:	77 27       	eor	r23, r23
 f7a:	cb 01       	movw	r24, r22
 f7c:	97 f9       	bld	r25, 7
 f7e:	08 95       	ret

00000f80 <__udivmodsi4>:
 f80:	a1 e2       	ldi	r26, 0x21	; 33
 f82:	1a 2e       	mov	r1, r26
 f84:	aa 1b       	sub	r26, r26
 f86:	bb 1b       	sub	r27, r27
 f88:	fd 01       	movw	r30, r26
 f8a:	0d c0       	rjmp	.+26     	; 0xfa6 <__udivmodsi4_ep>

00000f8c <__udivmodsi4_loop>:
 f8c:	aa 1f       	adc	r26, r26
 f8e:	bb 1f       	adc	r27, r27
 f90:	ee 1f       	adc	r30, r30
 f92:	ff 1f       	adc	r31, r31
 f94:	a2 17       	cp	r26, r18
 f96:	b3 07       	cpc	r27, r19
 f98:	e4 07       	cpc	r30, r20
 f9a:	f5 07       	cpc	r31, r21
 f9c:	20 f0       	brcs	.+8      	; 0xfa6 <__udivmodsi4_ep>
 f9e:	a2 1b       	sub	r26, r18
 fa0:	b3 0b       	sbc	r27, r19
 fa2:	e4 0b       	sbc	r30, r20
 fa4:	f5 0b       	sbc	r31, r21

00000fa6 <__udivmodsi4_ep>:
 fa6:	66 1f       	adc	r22, r22
 fa8:	77 1f       	adc	r23, r23
 faa:	88 1f       	adc	r24, r24
 fac:	99 1f       	adc	r25, r25
 fae:	1a 94       	dec	r1
 fb0:	69 f7       	brne	.-38     	; 0xf8c <__udivmodsi4_loop>
 fb2:	60 95       	com	r22
 fb4:	70 95       	com	r23
 fb6:	80 95       	com	r24
 fb8:	90 95       	com	r25
 fba:	9b 01       	movw	r18, r22
 fbc:	ac 01       	movw	r20, r24
 fbe:	bd 01       	movw	r22, r26
 fc0:	cf 01       	movw	r24, r30
 fc2:	08 95       	ret

00000fc4 <__tablejump2__>:
 fc4:	ee 0f       	add	r30, r30
 fc6:	ff 1f       	adc	r31, r31
 fc8:	05 90       	lpm	r0, Z+
 fca:	f4 91       	lpm	r31, Z
 fcc:	e0 2d       	mov	r30, r0
 fce:	09 94       	ijmp

00000fd0 <_exit>:
 fd0:	f8 94       	cli

00000fd2 <__stop_program>:
 fd2:	ff cf       	rjmp	.-2      	; 0xfd2 <__stop_program>
